Z80ASM SuperFast Relocating Macro Assembler     	    Z80ASM 1.32 Page   1
NFORM   Z80

    1                   	.z80
    2                   
    3                   ;*****************************************************************************
    4                   ; NFORM.Z80  Universal Formatierer fuer Mini/Maxi
    5                   ;
    6                   ; Boot loader for MC CP/M-Computer Mini drive with FLO2 contoller
    7                   ;
    8                   ; based on UFORMAT Rev 1.22 (C) 1984 Rolf-Dieter Klein / JS
    9                   ;
   10                   ;*****************************************************************************
   11                   ; works directly on Monitor and FLO2 hardware, does not need CP/M or BIOS
   12                   
   13                   ; 80 Spur Laufwerke   1K pro Sektor Boot
   14                   ; das programm wird auf sektor 1 track 0 abgelegt
   15                   ;
   16                   ; PLEASE NOTE THE CHANGED CPM & BIOS START ADDRESS!!!
   17                   ;
   18                   ; Version history
   19                   ;
   20                   ; 31.05.2026 *dg* Source code of version 1.22 retrieved from binary
   21                   ; 10.07.2026 *dg* Renamed to NFORM and reformatted
   22                   
   23                   ; IO ADDESSES FLO1/FLO2 Mini/Maxi
   24         00C0      FLO0	EQU 0C0H	; Status/Command
   25         00C1      FLO1	EQU 0C1H	; Track
   26         00C2      FLO2	EQU 0C2H	; Sector
   27         00C3      FLO3	EQU 0C3H	; Data
   28         00C4      FLO4	EQU 0C4H	; Special FLO-Flags
   29                   
   30                   ; IO ADDESSES FLO1 Maxi
   31         0040      FLOA0	EQU 040H
   32         0041      FLOA1	EQU 041H
   33         0042      FLOA2	EQU 042H
   34         0043      FLOA3	EQU 043H
   35         0044      FLOA4	EQU 044H
   36                   
   37                   ; IO ADDESSES FLO1 Mini
   38         0030      FLOB0	EQU 030H
   39         0031      FLOB1	EQU 031H
   40         0032      FLOB2	EQU 032H
   41         0033      FLOB3	EQU 033H
   42         0034      FLOB4	EQU 034H
   43                   
   44                   ;-----------------------------------------------------------------------------
   45                   
   46         0100      	ORG 100H
   47                   
   48 0100  C3 070E     	JP START 	; Hauptprogramm
   49                   
   50                   ;-----------------------------------------------------------------------------
   51                   
   52 0103  C3 F009     CONOUT:	JP 0F009H 	; Ausgabe eines Zeichens in C
   53                   
   54                   ;-----------------------------------------------------------------------------
   55                   
   56 0106  CD F003     CONIN:	CALL 0F003H 	; Eingabe eines Zeichens nach A
   57 0109  E6 7F       	AND 7FH
   58 010B  C9          	RET
Z80ASM SuperFast Relocating Macro Assembler     	    Z80ASM 1.32 Page   2
NFORM   Z80

   59                   
   60                   ;-----------------------------------------------------------------------------
   61                   ; Interrupt routine
   62                   
   63 010C  F1          INTR:	POP AF
   64                   	; reset interrupts
   65 010D  DB 40       	IN A,(FLOA0)
   66 010F  DB 30       	IN A,(FLOB0)
   67 0111  DB C0       	IN A,(FLO0)
   68 0113  FB          	EI
   69 0114  ED 4D       	RETI
   70                   
   71                   ;-----------------------------------------------------------------------------
   72                   ; Universal Formatter
   73                   
   74 0116  21 156C     FORMAT:	LD HL,FMSG 
   75 0119  CD 0B99     	CALL PRNMSG
   76                   	
   77                   	; reset interrupts
   78 011C  DB 40       	IN A,(FLOA0) 	; ggf. bei gemischtem Betrieb auch
   79 011E  DB 30       	IN A,(FLOB0)   	; andere Ports loeschen
   80 0120  DB C0       	IN A,(FLO0) 	; alle Interrupts loeschen
   81                   
   82 0122  ED 56       	IM 1  		; MODE 1, RST-7 verwenden
   83 0124  3E C3       	LD A,0C3H 	; Sprungvektor setzen (JP)
   84 0126  32 0038     	LD (38H),A
   85 0129  21 010C     	LD HL,INTR
   86 012C  22 0039     	LD (39H),HL 	; auf Interruptroutine
   87                   
   88                   	; --- format ---------------------------------------------------------
   89                   
   90 012F  CD 048E     	CALL HOME 	; set head to track 0
   91                   
   92 0132  AF          	XOR A
   93 0133  32 18C7     	LD (CURTRK),A  	; start with track 0
   94 0136  3A 18C1     	LD A,(TRKCNT) 	; number of tracks
   95 0139  47          	LD B,A
   96                   
   97 013A              FORM1:	; format loop (tracks)
   98                   
   99                   	; --- format side 0 ---
  100                   	
  101 013A  C5          	PUSH BC
  102 013B  CD 01F3     	CALL ECMACHK 	; check if track 0 and ECMA70
  103 013E  CD 02E3     	CALL GENTRK 	; create track
  104 0141  CD 0674     	CALL FRMTRK 	; format track
  105 0144  CD 0245     	CALL ERRCHK
  106                   	
  107 0147  3A 18C2     	LD A,(SSDS)
  108 014A  FE 01       	CP 1
  109 014C  C2 0178     	JP NZ,FORM3	; -> single sided
  110                   
  111                   	; --- double-sided,. format side 1 ---
  112                   	
  113 014F  3A 18C4     	LD A,(DRIVE)	; Rueckseite setzen
  114 0152  F6 80       	OR 80H  	; aber kein Side-sel
  115 0154  32 18C4     	LD (DRIVE),A
  116                   
Z80ASM SuperFast Relocating Macro Assembler     	    Z80ASM 1.32 Page   3
NFORM   Z80

  117 0157  3A 18C6     	LD A,(USESSO)
  118 015A  B7          	OR A
  119 015B  CA 0163     	JP Z,FORM2	; -> no SSO
  120                   	
  121                   	; SSO
  122 015E  3E 80       	LD A,80H 
  123 0160  32 18C5     	LD (SIDESEL),A 	; setzen
  124                   
  125 0163  CD 02E3     FORM2:	CALL GENTRK
  126 0166  CD 0674     	CALL FRMTRK
  127 0169  CD 0245     	CALL ERRCHK
  128                   	
  129                   	; set side 0
  130 016C  3A 18C4     	LD A,(DRIVE)
  131 016F  E6 7F       	AND 7FH
  132 0171  32 18C4     	LD (DRIVE),A   
  133 0174  AF          	XOR A
  134 0175  32 18C5     	LD (SIDESEL),A
  135                   
  136 0178  3A 18C7     FORM3:	LD A,(CURTRK)
  137 017B  3C          	INC A
  138 017C  32 18C7     	LD (CURTRK),A
  139 017F  47          	LD B,A
  140 0180  3A 18C1     	LD A,(TRKCNT)
  141 0183  B8          	CP B
  142 0184  CA 018A     	JP Z,FORM4	; AKTRK = TRKCNT
  143                   	
  144 0187  CD 0546     	CALL STEPIN
  145                   	
  146 018A  0E 46       FORM4:	LD C,'F'
  147 018C  CD 0103     	CALL CONOUT 	; Meldung FFFFF ausgeben bei jeder Spur ein F
  148 018F  C1          	POP BC
  149 0190  10 A8       	DJNZ FORM1	; -> format loop (tracks)
  150                   
  151                   	; verify -------------------------------------------------------------
  152                   	
  153 0192  21 1838     	LD HL,VMSG
  154 0195  CD 0B99     	CALL PRNMSG
  155                   	
  156 0198  CD 048E     	CALL HOME	; set head to track 0
  157                   	
  158 019B  AF          	XOR A
  159 019C  32 18C7     	LD (CURTRK),A  	; start with track 0
  160 019F  3A 18C1     	LD A,(TRKCNT) 	; number of tracks
  161 01A2  47          	LD B,A
  162                   
  163 01A3              FORM5:	; verify loop (tracks)
  164                   
  165                   	; --- verify side 0 ---
  166                   
  167 01A3  C5          	PUSH BC
  168 01A4  CD 01F3     	CALL ECMACHK
  169 01A7  CD 0462     	CALL VERIFY
  170 01AA  3A 18C2     	LD A,(SSDS)
  171 01AD  FE 01       	CP 1
  172 01AF  C2 01D5     	JP NZ,FORM7	; -> single-sided
  173                   
  174                   	; --- double-sided, verify side 1 ---
Z80ASM SuperFast Relocating Macro Assembler     	    Z80ASM 1.32 Page   4
NFORM   Z80

  175                   	
  176 01B2  3A 18C4     	LD A,(DRIVE)
  177 01B5  F6 80       	OR 80H
  178 01B7  32 18C4     	LD (DRIVE),A
  179 01BA  3A 18C6     	LD A,(USESSO)
  180 01BD  B7          	OR A
  181 01BE  CA 01C6     	JP Z,FORM6	; -> no SSO
  182                   	
  183                   	; SSO
  184 01C1  3E 80       	LD A,80H
  185 01C3  32 18C5     	LD (SIDESEL),A
  186                   
  187 01C6  CD 0462     FORM6:	CALL VERIFY
  188                   
  189                   	; set side 0
  190 01C9  3A 18C4     	LD A,(DRIVE)
  191 01CC  E6 7F       	AND 7FH
  192 01CE  32 18C4     	LD (DRIVE),A 
  193 01D1  AF          	XOR A
  194 01D2  32 18C5     	LD (SIDESEL),A 	; wieder Seite 0
  195                   
  196 01D5  3A 18C7     FORM7:	LD A,(CURTRK)
  197 01D8  3C          	INC A
  198 01D9  32 18C7     	LD (CURTRK),A
  199 01DC  47          	LD B,A
  200 01DD  3A 18C1     	LD A,(TRKCNT)
  201 01E0  B8          	CP B
  202 01E1  CA 01E7     	JP Z,FORM8	; -> TRKCNT = CURTRK
  203                   
  204 01E4  CD 0546     	CALL STEPIN
  205                   
  206 01E7  0E 56       FORM8:	LD C,'V' 
  207 01E9  CD 0103     	CALL CONOUT 	; VVVVV fuer Verify
  208 01EC  C1          	POP BC
  209 01ED  10 B4       	DJNZ FORM5	; -> verify loop (tracks)
  210                   	
  211 01EF  CD 048E     	CALL HOME 	; set head to track 0
  212 01F2  C9          	RET
  213                   	
  214                   ;-----------------------------------------------------------------------------
  215                   ; Set ECMA70 format
  216                   
  217 01F3              ECMACHK:
  218 01F3  3A 18BB     	LD A,(ECMA)	; 1=ECMA70
  219 01F6  B7          	OR A
  220 01F7  C8          	RET Z  		; no ECMA70
  221                   	
  222 01F8  AF          	XOR A
  223 01F9  32 18BA     	LD (MINMAX),A 	; always mini drive
  224                   	
  225 01FC  3A 18C7     	LD A,(CURTRK)
  226 01FF  B7          	OR A
  227 0200  C2 0225     	JP NZ,ECMAC1	; -> not track 0
  228                   	
  229                   	; track 0, format single-density
  230 0203  21 0080     	LD HL,128
  231 0206  22 18BC     	LD (BYTCNT),HL
  232                    	
Z80ASM SuperFast Relocating Macro Assembler     	    Z80ASM 1.32 Page   5
NFORM   Z80

  233 0209  3E 00       	LD A,0 		; single density
  234 020B  32 18BF     	LD (DENSITY),A 	;
  235 020E  3E 00       	LD A,0		; single-sided
  236 0210  32 18C2     	LD (SSDS),A
  237 0213  3E 10       	LD A,16		; 16 sectors
  238 0215  32 18C3     	LD (SECCNT),A
  239 0218  3E 1B       	LD A,27
  240 021A  32 18C0     	LD (GAPLEN),A
  241 021D  3E 28       	LD A,40		; 40 tracks
  242 021F  32 18C1     	LD (TRKCNT),A
  243 0222  C3 0244     	JP ECMAC2
  244                   	
  245 0225              ECMAC1:	; not track 0, format double density
  246 0225  21 0100     	LD HL,256
  247 0228  22 18BC     	LD (BYTCNT),HL
  248                   	
  249 022B  3E 01       	LD A,1		; double density
  250 022D  32 18BF     	LD (DENSITY),A
  251 0230  3E 00       	LD A,0 		; single-sided
  252 0232  32 18C2     	LD (SSDS),A
  253 0235  3E 10       	LD A,16 	; 16 sectors
  254 0237  32 18C3     	LD (SECCNT),A
  255 023A  3E 36       	LD A,54
  256 023C  32 18C0     	LD (GAPLEN),A 	; STD Gap
  257 023F  3E 28       	LD A,40 	; 40 tracks
  258 0241  32 18C1     	LD (TRKCNT),A
  259                   
  260 0244  C9          ECMAC2:	RET
  261                   
  262                   ;-----------------------------------------------------------------------------
  263                   ; General error check routine
  264                   
  265                   ; error code in A
  266                   ;   bit 2 = CPU to slow
  267                   ;   bit 3 = CRC error
  268                   ;   bit 4 = record not found
  269                   ;   bit 5 = wrong record type
  270                   ;   bit 6 = write protected
  271                   
  272 0245  B7          ERRCHK:	OR A
  273 0246  C8          	RET Z  	; =0? -> Status ok
  274                   	
  275                   	; TRACK, Spur ausgeben
  276 0247  F5          	PUSH AF 	; save error code
  277 0248  21 1721     	LD HL,TKMSG
  278 024B  CD 0B99     	CALL PRNMSG
  279 024E  3A 18C7     	LD A,(CURTRK)
  280 0251  6F          	LD L,A
  281 0252  26 00       	LD H,0 
  282 0254  CD 02AE     	CALL PRNTHL
  283 0257  21 172C     	LD HL,SKMSG
  284 025A  CD 0B99     	CALL PRNMSG
  285 025D  3A 18C8     	LD A,(CURSEC)
  286 0260  6F          	LD L,A
  287 0261  26 00       	LD H,0
  288 0263  CD 02AE     	CALL PRNTHL
  289 0266  CD 0D50     	CALL CRLF
  290                   
Z80ASM SuperFast Relocating Macro Assembler     	    Z80ASM 1.32 Page   6
NFORM   Z80

  291 0269  F1          	POP AF  	; restore error code
  292                   	
  293                   	; check bit 2
  294 026A  CB 57       	BIT 2,A
  295 026C  21 16ED     	LD HL,F0MSG 	; error message
  296 026F  CA 0275     	JP Z,ERRC1	; -> bit 2 not set
  297                   	
  298                   	; bit 2, CPU too slow
  299 0272  21 167B     	LD HL,F2MSG
  300                   
  301 0275              ERRC1:	; check bit 3
  302 0275  CB 5F       	BIT 3,A
  303 0277  CA 027D     	JP Z,ERRC2	; -> bit 3 not set
  304                   
  305                   	; bit 3, CRC errror
  306 027A  21 1643     	LD HL,F3MSG
  307                   
  308 027D              ERRC2:	; check bit 4
  309 027D  CB 67       	BIT 4,A
  310 027F  CA 0285     	JP Z,ERRC3	; -> bit 4 not set
  311                   	
  312                   	; bit 4, record not found
  313 0282  21 160C     	LD HL,F4MSG
  314                   	
  315 0285              ERRC3:	; check bit 5
  316 0285  CB 6F       	BIT 5,A
  317 0287  CA 028D     	JP Z,ERRC4	; -> bit 5 not set
  318                   
  319                   	; bit 5, wrong record type
  320 028A  21 15D5     	LD HL,F5MSG
  321                   
  322 028D              ERRC4:	; check bit 6
  323 028D  CB 77       	BIT 6,A
  324 028F  CA 0295     	JP Z,ERRC5	; -> bit 6 not set
  325                   
  326                   	; bit 6, write protected
  327 0292  21 159E     	LD HL,F6MSG
  328                   	
  329 0295              ERRC5:	; check bit 7
  330 0295  CA 029B     	JP Z,ERRC6
  331                   	
  332                   	; bit 7, write protected
  333 0298  21 159E     	LD HL,F6MSG 	; dominant is write proteced error
  334                   
  335 029B  CD 0B99     ERRC6:	CALL PRNMSG
  336                   
  337 029E              ERRC7:	; wait for 'W' or 'w'
  338 029E  CD 0106     	CALL CONIN
  339 02A1  FE 57       	CP 'W'
  340 02A3  CA 02AB     	JP Z,ERRC8
  341 02A6  FE 77       	CP 'w'
  342 02A8  C2 029E     	JP NZ,ERRC7
  343                   
  344 02AB  C3 070E     ERRC8:	JP START 	; no stack adjust needed
  345                   	
  346                   ;-----------------------------------------------------------------------------
  347                   ; PRNMSG decimal value in HL
  348                   	
Z80ASM SuperFast Relocating Macro Assembler     	    Z80ASM 1.32 Page   7
NFORM   Z80

  349 02AE  AF          PRNTHL:	XOR A
  350 02AF  F5          	PUSH AF
  351                   
  352 02B0              PRNTH1:	; digit loop
  353 02B0  3E 10       	LD A,16
  354 02B2  01 000A     	LD BC,10 	; div 10
  355 02B5  11 0000     	LD DE,0 	; Rest
  356 02B8  EB          	EX DE,HL
  357                   	
  358 02B9              PRNTH2:	; division loop
  359 02B9  F5          	PUSH AF
  360 02BA  CB 23       	SLA E
  361 02BC  CB 12       	RL D
  362 02BE  CB 15       	RL L
  363 02C0  CB 14       	RL H
  364 02C2  CB C3       	SET 0,E
  365 02C4  AF          	XOR A
  366 02C5  ED 42       	SBC HL,BC
  367 02C7  D2 02CD     	JP NC,PRNTH3
  368                   	
  369 02CA  09          	ADD HL,BC
  370 02CB  CB 83       	RES 0,E
  371                   	
  372 02CD  F1          PRNTH3:	POP AF
  373 02CE  3D          	DEC A
  374 02CF  20 E8       	JR NZ,PRNTH2
  375                   	
  376 02D1  EB          	EX DE,HL 	; HL=result, DE=remainder
  377 02D2  7B          	LD A,E
  378 02D3  F6 30       	OR 30H
  379 02D5  F5          	PUSH AF
  380 02D6  7C          	LD A,H
  381 02D7  B5          	OR L
  382 02D8  20 D6       	JR NZ,PRNTH1	; -> loop
  383                   	
  384 02DA              PRNTH4:	;output
  385 02DA  F1          	POP AF
  386 02DB  B7          	OR A
  387 02DC  C8          	RET Z
  388                   	
  389 02DD  4F          	LD C,A
  390 02DE  CD 0103     	CALL CONOUT
  391 02E1  18 F7       	JR PRNTH4
  392                   	
  393                   ;-----------------------------------------------------------------------------
  394                   ; Create new track
  395                   	
  396 02E3  DD 21 18C9  GENTRK:	LD IX,FORMTAB 	; start of format table
  397                   
  398                   	; header
  399 02E7  3A 18BF     	LD A,(DENSITY)
  400 02EA  B7          	OR A
  401 02EB  C2 02F5     	JP NZ,GENT1	; -> double-density
  402                   
  403                   	; single-density
  404 02EE  06 10       	LD B,16
  405 02F0  0E FF       	LD C,0FFH 	; fuellbyte 
  406 02F2  C3 02F9     	JP GENT2
Z80ASM SuperFast Relocating Macro Assembler     	    Z80ASM 1.32 Page   8
NFORM   Z80

  407                   
  408 02F5              GENT1:	; double density
  409 02F5  06 20       	LD B,32
  410 02F7  0E 4E       	LD C,04EH
  411                   	
  412 02F9              GENT2:
  413 02F9  DD 71 00    GENT3:	LD (IX+0),C
  414 02FC  DD 23       	INC IX
  415 02FE  05          	DEC B
  416 02FF  C2 02F9     	JP NZ,GENT3
  417                   
  418                   	; create sectors
  419                   	
  420 0302  3E 01       	LD A,1		; start with sector 1
  421 0304  32 18C8     	LD (CURSEC),A 	; current sector
  422 0307  3A 18C3     	LD A,(SECCNT)
  423 030A  47          	LD B,A
  424                   
  425 030B              GENT4:	; sector loop
  426 030B  C5          	PUSH BC
  427                   	
  428                   	; ID field
  429 030C  3A 18BF     	LD A,(DENSITY)
  430 030F  B7          	OR A
  431 0310  C2 0382     	JP NZ,GENT11	; -> double density
  432                   
  433                   	; --- single density ---
  434                   	
  435 0313  06 06       	LD B,6
  436                   
  437 0315  DD 36 00 00 GENT5:	LD (IX+0),0
  438 0319  DD 23       	INC IX
  439 031B  05          	DEC B
  440 031C  C2 0315     	JP NZ,GENT5
  441                   	
  442 031F  DD 36 00 FE 	LD (IX+0),0FEH 	; ID address marc
  443 0323  DD 23       	INC IX
  444 0325  3A 18C7     	LD A,(CURTRK)	; track number 0..n
  445 0328  DD 77 00    	LD (IX+0),A
  446 032B  DD 23       	INC IX
  447                   
  448 032D  3A 18C5     	LD A,(SIDESEL) 	; side
  449 0330  E6 80       	AND 80H  	;
  450 0332  B7          	OR A
  451 0333  C2 033D     	JP NZ,GENT6	; -> side 1
  452                   
  453                   	; side 0
  454 0336  DD 36 00 00 	LD (IX+0),0  	; Seite 0
  455 033A  C3 0341     	JP GENT7
  456                   
  457 033D              GENT6:	; side 1
  458 033D  DD 36 00 01 	LD (IX+0),1  	; Seite 1
  459                   
  460 0341  DD 23       GENT7:	INC IX
  461 0343  3A 18C8     	LD A,(CURSEC)
  462 0346  DD 77 00    	LD (IX+0),A  	; Sector 1..n
  463 0349  DD 23       	INC IX
  464 034B  2A 18BC     	LD HL,(BYTCNT)	; sector size (128,256,512,1024)
Z80ASM SuperFast Relocating Macro Assembler     	    Z80ASM 1.32 Page   9
NFORM   Z80

  465 034E  7C          	LD A,H  	; 0,1,2,4 da 80h,100h,200h,400h
  466 034F  FE 04       	CP 4
  467 0351  C2 0356     	JP NZ,GENT8	; -> not 4
  468                   	
  469                   	; A=4
  470 0354  3E 03       	LD A,3
  471                   
  472 0356  DD 77 00    GENT8:	LD (IX+0),A  	; Laengenkennung (0,1,2,3)
  473 0359  DD 23       	INC IX
  474 035B  DD 36 00 F7 	LD (IX+0),0F7H 	; create CRC
  475 035F  DD 23       	INC IX
  476                   
  477 0361  06 0B       	LD B,11
  478 0363  DD 36 00 FF GENT9:	LD (IX+0),0FFH
  479 0367  DD 23       	INC IX
  480 0369  05          	DEC B
  481 036A  C2 0363     	JP NZ,GENT9
  482                   	
  483 036D  06 06       	LD B,6
  484 036F  DD 36 00 00 GENT10:	LD (IX+0),0
  485 0373  DD 23       	INC IX
  486 0375  05          	DEC B
  487 0376  C2 036F     	JP NZ,GENT10
  488                   	
  489 0379  DD 36 00 FB 	LD (IX+0),0FBH 	; data mark
  490 037D  DD 23       	INC IX
  491 037F  C3 0406     	JP GENT20
  492                   
  493                   	; --- double density ---
  494                   
  495 0382  06 0C       GENT11:	LD B,12
  496 0384  DD 36 00 00 GENT12:	LD (IX+0),0
  497 0388  DD 23       	INC IX
  498 038A  05          	DEC B
  499 038B  C2 0384     	JP NZ,GENT12
  500                   	
  501 038E  06 03       	LD B,3
  502 0390  DD 36 00 F5 GENT13:	LD (IX+0),0F5H
  503 0394  DD 23       	INC IX
  504 0396  05          	DEC B
  505 0397  C2 0390     	JP NZ,GENT13
  506                   	
  507 039A  DD 36 00 FE 	LD (IX+0),0FEH 	; ID address mark
  508 039E  DD 23       	INC IX
  509 03A0  3A 18C7     	LD A,(CURTRK)
  510 03A3  DD 77 00    	LD (IX+0),A  	; track 0..n
  511 03A6  DD 23       	INC IX
  512 03A8  3A 18C5     	LD A,(SIDESEL) 	; for side-sel SSO
  513 03AB  E6 80       	AND 80H
  514 03AD  B7          	OR A
  515 03AE  C2 03B8     	JP NZ,GENT14	; -> side 1
  516                   
  517                   	; side 0
  518 03B1  DD 36 00 00 	LD (IX+0),0  	; side 0
  519 03B5  C3 03BC     	JP GENT15
  520                   	
  521 03B8  DD 36 00 01 GENT14:	LD (IX+0),1  	; side 1
  522                   
Z80ASM SuperFast Relocating Macro Assembler     	    Z80ASM 1.32 Page  10
NFORM   Z80

  523 03BC  DD 23       GENT15:	INC IX
  524 03BE  3A 18C8     	LD A,(CURSEC)
  525 03C1  DD 77 00    	LD (IX+0),A  	; sector 1..n
  526 03C4  DD 23       	INC IX
  527 03C6  2A 18BC     	LD HL,(BYTCNT)	; sector size (128,256,512,1024)
  528 03C9  7C          	LD A,H  	; 0,1,2,4 da 80h,100h,200h,400h
  529 03CA  FE 04       	CP 4
  530 03CC  C2 03D1     	JP NZ,GENT16
  531                   	
  532                   	; A=4
  533 03CF  3E 03       	LD A,3
  534                   
  535 03D1  DD 77 00    GENT16:	LD (IX+0),A  	; 0,1,2,3 Laengenkennung
  536 03D4  DD 23       	INC IX
  537 03D6  DD 36 00 F7 	LD (IX+0),0F7H 	; create CRC
  538 03DA  DD 23       	INC IX
  539                   	
  540 03DC  06 16       	LD B,22
  541 03DE  DD 36 00 4E GENT17:	LD (IX+0),04EH
  542 03E2  DD 23       	INC IX
  543 03E4  05          	DEC B
  544 03E5  C2 03DE     	JP NZ,GENT17
  545                   
  546 03E8  06 0C       	LD B,12
  547 03EA  DD 36 00 00 GENT18:	LD (IX+0),0
  548 03EE  DD 23       	INC IX
  549 03F0  05          	DEC B
  550 03F1  C2 03EA     	JP NZ,GENT18
  551                   	
  552 03F4  06 03       	LD B,3
  553 03F6  DD 36 00 F5 GENT19:	LD (IX+0),0F5H
  554 03FA  DD 23       	INC IX
  555 03FC  05          	DEC B
  556 03FD  C2 03F6     	JP NZ,GENT19
  557                   	
  558 0400  DD 36 00 FB 	LD (IX+0),0FBH 	; data mark
  559 0404  DD 23       	INC IX
  560                   
  561                   	; write data block
  562                   
  563 0406  3A 18BE     GENT20:	LD A,(FILLER) 	; data byte
  564 0409  4F          	LD C,A
  565 040A  2A 18BC     	LD HL,(BYTCNT) ; 128,256,512,1024
  566                   
  567 040D  DD 71 00    GENT21:	LD (IX+0),C
  568 0410  DD 23       	INC IX
  569 0412  2B          	DEC HL
  570 0413  7C          	LD A,H
  571 0414  B5          	OR L
  572 0415  C2 040D     	JP NZ,GENT21
  573                   	
  574 0418  DD 36 00 F7 	LD (IX+0),0F7H 	; write CRC
  575 041C  DD 23       	INC IX
  576 041E  3A 18BF     	LD A,(DENSITY)
  577 0421  B7          	OR A
  578 0422  C2 042A     	JP NZ,GENT22	; -> double density
  579                   	
  580                   	; single density
Z80ASM SuperFast Relocating Macro Assembler     	    Z80ASM 1.32 Page  11
NFORM   Z80

  581 0425  0E FF       	LD C,0FFH  	; Datenbyte SD
  582 0427  C3 042C     	JP GENT23
  583                   
  584 042A              GENT22:	; double density
  585 042A  0E 4E       	LD C,04EH  	; Datenbyte DD
  586                   
  587 042C  3A 18C0     GENT23:	LD A,(GAPLEN)
  588 042F  47          	LD B,A  	; store gap 3
  589                   
  590 0430  DD 71 00    GENT24:	LD (IX+0),C
  591 0433  DD 23       	INC IX
  592 0435  05          	DEC B
  593 0436  C2 0430     	JP NZ,GENT24
  594                   	
  595                   	; next sector
  596 0439  3A 18C8     	LD A,(CURSEC)
  597 043C  3C          	INC A
  598 043D  32 18C8     	LD (CURSEC),A 	; neue Sektorennummer
  599 0440  C1          	POP BC
  600 0441  05          	DEC B
  601 0442  C2 030B     	JP NZ,GENT4	; -> sector loop
  602                   	
  603                   	; fill to the end
  604 0445  3A 18BF     	LD A,(DENSITY)
  605 0448  B7          	OR A
  606 0449  C2 0451     	JP NZ,GENT25	; -> double-sided
  607                   
  608                   	; single-sided
  609 044C  0E FF       	LD C,0FFH 	; store gap 4
  610 044E  C3 0453     	JP GENT26
  611                   
  612 0451              GENT25:	; double-sided
  613 0451  0E 4E       	LD C,04EH
  614                   
  615 0453  21 03E8     GENT26:	LD HL,1000	; use big number to make shure there are no
  616                   			; unwanted bytes till the index puls
  617 0456  DD 71 00    GENT27:	LD (IX+0),C
  618 0459  DD 23       	INC IX
  619 045B  2B          	DEC HL
  620 045C  7C          	LD A,H
  621 045D  B5          	OR L
  622 045E  C2 0456     	JP NZ,GENT27
  623                   	
  624 0461  C9          	RET
  625                   	
  626                   ;-----------------------------------------------------------------------------
  627                   ; Verify a track, test-read read all sectors
  628                   	
  629 0462  CD 0482     VERIFY:	CALL DELAY  	; head settle time
  630                   
  631 0465  3E 01       	LD A,1
  632 0467  32 18C8     	LD (CURSEC),A
  633 046A  3A 18C3     	LD A,(SECCNT)
  634                   
  635 046D  47          	LD B,A
  636                   	
  637 046E  C5          VERIF1:	PUSH BC
  638 046F  CD 0576     	CALL READ  	; simply read
Z80ASM SuperFast Relocating Macro Assembler     	    Z80ASM 1.32 Page  12
NFORM   Z80

  639 0472  CD 0245     	CALL ERRCHK  	; 0=ok, otherwise message
  640                   	
  641 0475  3A 18C8     	LD A,(CURSEC)
  642 0478  3C          	INC A
  643 0479  32 18C8     	LD (CURSEC),A
  644                   	
  645 047C  C1          	POP BC
  646 047D  05          	DEC B
  647 047E  C2 046E     	JP NZ,VERIF1
  648                   	
  649 0481  C9          	RET
  650                   	
  651                   ;-----------------------------------------------------------------------------
  652                   ; Delay loop 40ms..10ms (???)
  653                   
  654 0482  C5          DELAY:	PUSH BC
  655 0483  01 0D05     	LD BC,0D05H
  656                   
  657 0486  0B          DELAY1:	DEC BC
  658 0487  79          	LD A,C
  659 0488  B0          	OR B
  660 0489  C2 0486     	JP NZ,DELAY1
  661                   	
  662 048C  C1          	POP BC
  663 048D  C9          	RET
  664                   	
  665                   ;-----------------------------------------------------------------------------
  666                   ; Set head to track 0
  667                   
  668 048E  3A 18B8     HOME:	LD A,(USER)
  669 0491  B7          	OR A
  670 0492  C2 04C6     	JP NZ,HOME4
  671                   	
  672                   	; USER=0: FLO1/FLO2 (C0h)
  673                   	
  674 0495  21 00FA     	LD HL,250 	; max retries
  675                   	
  676 0498              HOME1:	; retry loop
  677 0498  E5          	PUSH  HL
  678 0499  DB C0       	IN A,(FLO0)	; read status
  679 049B  CD 0482     	CALL DELAY
  680 049E  FB          	EI  		; enable interrupts
  681 049F  CD 052E     	CALL RSTEX	; execute Restore
  682 04A2  F3          	DI
  683 04A3  E1          	POP HL
  684 04A4  DB C0       	IN A,(FLO0)	; read status
  685 04A6  E6 80       	AND 80H 	; <>0 dann nicht ready
  686 04A8  CA 052D     	JP Z,HOME12
  687                   	
  688 04AB  2B          	DEC HL
  689 04AC  7C          	LD A,H
  690 04AD  B5          	OR L  		
  691 04AE  20 E8       	JR NZ,HOME1	; -> retry
  692                   	
  693                   	; error
  694 04B0  21 173B     	LD HL,RMSG	; not ready
  695 04B3  CD 0B99     	CALL PRNMSG
  696                   
Z80ASM SuperFast Relocating Macro Assembler     	    Z80ASM 1.32 Page  13
NFORM   Z80

  697 04B6              HOME2:	; wait for 'W' / 'w'
  698 04B6  CD 0106     	CALL CONIN
  699 04B9  FE 57       	CP 'W'
  700 04BB  CA 04C3     	JP Z,HOME3
  701 04BE  FE 77       	CP 'w'
  702 04C0  C2 04B6     	JP NZ,HOME2
  703                   
  704 04C3  C3 070E     HOME3:	JP START
  705                   	
  706                   	;---------------------------------------------------------------------
  707                   
  708 04C6  FE 01       HOME4:	CP 1  		; 1=FLO1-Maxi
  709 04C8  C2 04FC     	JP NZ,HOME8
  710                   
  711                   	; FLO1 Maxi
  712                   	
  713 04CB  21 00FA     	LD HL,250 	; max retries
  714                   	
  715 04CE              HOME5:	; retry loop
  716 04CE  E5          	PUSH HL
  717 04CF  DB 40       	IN A,(FLOA0)
  718 04D1  CD 0482     	CALL DELAY
  719 04D4  FB          	EI  		; enable interrupts
  720 04D5  CD 0536     	CALL RSTEXA	; execute Restore
  721 04D8  F3          	DI
  722 04D9  E1          	POP HL
  723 04DA  DB 40       	IN A,(FLOA0) 	; check status
  724 04DC  E6 80       	AND 80H
  725 04DE  CA 052D     	JP Z,HOME12	; -> 0=ready
  726                   	
  727 04E1  2B          	DEC HL
  728 04E2  7C          	LD A,H
  729 04E3  B5          	OR L
  730 04E4  20 E8       	JR NZ,HOME5	; -> retry
  731                   	
  732                   	; error
  733 04E6  21 173B     	LD HL,RMSG	; not ready
  734 04E9  CD 0B99     	CALL PRNMSG
  735                   
  736 04EC              HOME6:	; wait for 'W' / 'w'
  737 04EC  CD 0106     	CALL CONIN
  738 04EF  FE 57       	CP 'W'
  739 04F1  CA 04F9     	JP Z,HOME7
  740 04F4  FE 77       	CP 'w'
  741 04F6  C2 04EC     	JP NZ,HOME6
  742                   
  743 04F9  C3 070E     HOME7:	JP START
  744                   	
  745                   	;---------------------------------------------------------------------
  746                   	
  747 04FC              HOME8:	; FLO1-Mini (???)
  748                   
  749 04FC  21 00FA     	LD HL,250 	; max retries
  750                   
  751 04FF              HOME9:	; retry loop
  752 04FF  E5          	PUSH  HL
  753 0500  DB 30       	IN A,(FLOB0)
  754 0502  CD 0482     	CALL DELAY
Z80ASM SuperFast Relocating Macro Assembler     	    Z80ASM 1.32 Page  14
NFORM   Z80

  755 0505  FB          	EI  		; enable interrupts
  756 0506  CD 053E     	CALL RSTEXB	; execute Restore
  757 0509  F3          	DI
  758 050A  E1          	POP HL
  759 050B  DB 30       	IN A,(FLOB0) 	; check status
  760 050D  E6 80       	AND 80H
  761 050F  CA 052D     	JP Z,HOME12	; -> 0=ready
  762                   	
  763 0512  2B          	DEC HL
  764 0513  7C          	LD A,H
  765 0514  B5          	OR L
  766 0515  20 E8       	JR NZ,HOME9	; -> retry
  767                   
  768                   	; error
  769 0517  21 173B     	LD HL,RMSG	; not ready
  770 051A  CD 0B99     	CALL PRNMSG
  771                   
  772 051D              HOME10:	; wait for 'W' / 'w'
  773 051D  CD 0106     	CALL CONIN
  774 0520  FE 57       	CP 'W'
  775 0522  CA 052A     	JP Z,HOME11
  776 0525  FE 77       	CP 'w'
  777 0527  C2 051D     	JP NZ,HOME10
  778                   
  779 052A  C3 070E     HOME11:	JP START
  780                   
  781 052D              HOME12:	; finished
  782 052D  C9          	RET
  783                   
  784                   ;-----------------------------------------------------------------------------
  785                   ; Execute Restore FLO2
  786                   
  787 052E  CD 0623     RSTEX:	CALL SETSR	; setup special register
  788 0531  3E 0B       	LD A,00001011B 	; 0000=Restore, Headload=1, Verify=0, Stepping rate=11
  789 0533  D3 C0       	OUT (FLO0),A	; write command
  790 0535  76          	HALT  		; UEBER INT zurueck
  791                   
  792                   ;-----------------------------------------------------------------------------
  793                   ; Execute Restore FLO1 Maxi
  794                   
  795 0536  CD 0623     RSTEXA:	CALL SETSR	; setup special register
  796 0539  3E 0B       	LD A,00001011B 	; see FLO2
  797 053B  D3 40       	OUT (FLOA0),A
  798 053D  76          	HALT  		; UEBER INT zurueck
  799                   
  800                   ;-----------------------------------------------------------------------------
  801                   ; Execute Restore FLO1 Mini
  802                   
  803 053E  CD 0623     RSTEXB:	CALL SETSR	; setup special register
  804 0541  3E 0B       	LD A,00001011B 	; see FLO2
  805 0543  D3 30       	OUT (FLOB0),A
  806 0545  76          	HALT  		; UEBER INT zurueck
  807                   
  808                   ;-----------------------------------------------------------------------------
  809                   ; Step ausfuehren
  810                   
  811 0546  CD 0482     STEPIN:	CALL DELAY 	; settle head
  812 0549  FB          	EI
Z80ASM SuperFast Relocating Macro Assembler     	    Z80ASM 1.32 Page  15
NFORM   Z80

  813 054A  CD 054F     	CALL STPEX
  814 054D  F3          	DI
  815 054E  C9          	RET
  816                   
  817                   ;-----------------------------------------------------------------------------
  818                   ; Execute drive step
  819                   
  820 054F              STPEX:
  821                    	; Laufwerk und Dichte
  822 054F  CD 0623     	CALL SETSR	; setup special register
  823 0552  3A 18B8     	LD A,(USER)
  824 0555  B7          	OR A
  825 0556  C2 0560     	JP NZ,STPEX1
  826                   
  827                   	; USER=0: FLO1/FLO2 (C0h)
  828 0559  3E 5B       	LD A,01011011B	; 010=Step In, update=1, headload=1, verify=0, stepping rate=11
  829 055B  D3 C0       	OUT (FLO0),A	; write command
  830 055D  C3 0575     	JP STPEX3
  831                   
  832 0560  FE 01       STPEX1:	CP 1
  833 0562  C2 056C     	JP NZ,STPEX2
  834                   	
  835                   	; USER=1: FLO1 Maxi
  836 0565  3E 5B       	LD A,01011011B	; see FLO2
  837 0567  D3 40       	OUT (FLOA0),A	; write command
  838 0569  C3 0575     	JP STPEX3
  839                   
  840 056C  FE 02       STPEX2:	CP 2
  841 056E  C2 0575     	JP NZ,STPEX3	; das fuehrt zu einem Endlos-HALT, weil der Controller
  842                   			; nicht programmier wurde.
  843                   
  844                   	; USER=2: FLO1 Mini
  845 0571  3E 5B       	LD A,01011011B	; see FLO2
  846 0573  D3 30       	OUT (FLOB0),A	; write command
  847                   
  848 0575  76          STPEX3:	HALT 
  849                   
  850                   ;-----------------------------------------------------------------------------
  851                   
  852 0576  06 02       READ:	LD B,2
  853                   
  854 0578  C5          READ1:	PUSH BC
  855 0579  FB          	EI
  856 057A  CD 05A2     	CALL READEX
  857 057D  F3          	DI
  858 057E  C1          	POP BC  	; Fehlerzaehler
  859 057F  3A 18B8     	LD A,(USER)
  860 0582  B7          	OR A
  861 0583  C2 058B     	JP NZ,READ2
  862                   	
  863                   	; USER=0: FLO1/FLO2 (C0h)
  864 0586  DB C0       	IN A,(FLO0) 	; read status
  865 0588  C3 059C     	JP READ4
  866                   	
  867 058B  FE 01       READ2:	CP 1
  868 058D  C2 0595     	JP NZ,READ3
  869                   	
  870                   	; USER=1: FLO1 Maxi
Z80ASM SuperFast Relocating Macro Assembler     	    Z80ASM 1.32 Page  16
NFORM   Z80

  871 0590  DB 40       	IN A,(FLOA0)
  872 0592  C3 059C     	JP READ4
  873                   	
  874 0595  FE 02       READ3:	CP 2
  875 0597  C2 059C     	JP NZ,READ4
  876                   	
  877                   	; USER=2: FLO1 Mini
  878 059A  DB 30       	IN A,(FLOB0)
  879                   
  880 059C  E6 3C       READ4:	AND 00111100B
  881 059E  C8          	RET Z		; -> ok
  882                   	
  883 059F  10 D7       	DJNZ READ1 	; -> retry
  884 05A1  C9          	RET
  885                   
  886                   ;-----------------------------------------------------------------------------
  887                   
  888 05A2  CD 0623     READEX:	CALL SETSR 	; setup special register
  889 05A5  3A 18B8     	LD A,(USER)
  890 05A8  B7          	OR A
  891 05A9  C2 05D1     	JP NZ,READX2
  892                   
  893                   	; USER=0: FLO1/FLO2 (C0h)
  894 05AC  3A 18C8     	LD A,(CURSEC)
  895 05AF  D3 C2       	OUT (FLO2),A 	; Sektor definieren
  896 05B1  21 18C9     	LD HL,FORMTAB 	; dorthin Daten legen 
  897 05B4  0E C3       	LD C,FLO3 	; Datenport
  898 05B6  3A 18C5     	LD A,(SIDESEL) 	; fuer Side-Control
  899 05B9  E6 80       	AND 80H
  900 05BB  07          	RLCA  		; BIT 0
  901 05BC  07          	RLCA  		; BIT 1
  902 05BD  E6 02       	AND 00000010B 	; 1=Seite 1
  903 05BF  C6 88       	ADD A,88H 	; kein Delay abwarten, head ist down
  904 05C1  D3 C0       	OUT (FLO0),A 	; und Befehl geben
  905                   
  906 05C3              READX1:	; wait for DRQ
  907 05C3  DB C4       	IN A,(FLO4)
  908 05C5  07          	RLCA		; DRQ -> Carry
  909 05C6  D2 05C3     	JP NC,READX1	; -> wait
  910                   
  911 05C9  ED A2       	INI  		; DATEN ablegen
  912 05CB  C3 05C3     	JP READX1 	; bis alle Daten gelesen, dann Interrupt 
  913 05CE  C3 0622     	JP READX6
  914                   
  915 05D1  FE 01       READX2:	CP 1 
  916 05D3  C2 05FB     	JP NZ,READX4
  917                   
  918                   	; USER=1: FLO1 Maxi
  919 05D6  3A 18C8     	LD A,(CURSEC)
  920 05D9  D3 42       	OUT (FLOA2),A 	; Sektor definieren
  921 05DB  21 18C9     	LD HL,FORMTAB 	; dorthin Daten legen 
  922 05DE  0E 43       	LD C,FLOA3 	; Datenport
  923 05E0  3A 18C5     	LD A,(SIDESEL) 	; fuer Side-Control
  924 05E3  E6 80       	AND 80H
  925 05E5  07          	RLCA  		; BIT 0
  926 05E6  07          	RLCA  		; BIT 1
  927 05E7  E6 02       	AND 00000010B 	; 1=Seite 1
  928 05E9  C6 88       	ADD A,88H 	; kein Delay abwarten, head ist down
Z80ASM SuperFast Relocating Macro Assembler     	    Z80ASM 1.32 Page  17
NFORM   Z80

  929 05EB  D3 40       	OUT (FLOA0),A 	; und Befehl geben
  930                   
  931 05ED  DB 44       READX3:	IN A,(FLOA4)
  932 05EF  07          	RLCA
  933 05F0  D2 05ED     	JP NC,READX3 	; warten bis DRQ-da ist
  934 05F3  ED A2       	INI  		; DATEN ablegen
  935 05F5  C3 05ED     	JP READX3 	; bis alle Daten gelesen, dann Interrupt 
  936 05F8  C3 0622     	JP READX6
  937                   	
  938 05FB  FE 02       READX4:	CP 2 
  939 05FD  C2 0622     	JP NZ,READX6
  940                   	
  941                   	; USER=2: FLO1 Mini
  942 0600  3A 18C8     	LD A,(CURSEC) 
  943 0603  D3 32       	OUT (FLOB2),A 	; Sektor definieren
  944 0605  21 18C9     	LD HL,FORMTAB 	; dorthin Daten legen 
  945 0608  0E 33       	LD C,FLOB3 	; Datenport
  946 060A  3A 18C5     	LD A,(SIDESEL) 	; fuer Side-Control
  947 060D  E6 80       	AND 80H
  948 060F  07          	RLCA  		; BIT 0
  949 0610  07          	RLCA  		; BIT 1
  950 0611  E6 02       	AND 00000010B 	; 1=Seite 1
  951 0613  C6 88       	ADD A,88H 	; kein Delay abwarten, head ist down
  952 0615  D3 30       	OUT (FLOB0),A 	; und Befehl geben
  953                   
  954 0617  DB 34       READX5:	IN A,(FLOB4)
  955 0619  07          	RLCA
  956 061A  D2 0617     	JP NC,READX5 	; warten bis DRQ-da ist
  957 061D  ED A2       	INI  		; DATEN ablegen
  958 061F  C3 0617     	JP READX5 	; bis alle Daten gelesen, dann Interrupt 
  959                   
  960 0622  C9          READX6:	RET 
  961                   
  962                   ;-----------------------------------------------------------------------------
  963                   ; Setup special register (Register 4)
  964                   
  965 0623  C5          SETSR:	PUSH BC
  966 0624  3A 18C4     	LD A,(DRIVE) 	; Laufwerkscode
  967 0627  47          	LD B,A 
  968 0628  3A 18BF     	LD A,(DENSITY)
  969 062B  B7          	OR A
  970 062C  C2 0633     	JP NZ,SETCT1	; -> DD
  971                   
  972                   	; SD
  973 062F  78          	LD A,B
  974 0630  F6 10       	OR 10H		; set FD179x and FDC9293 density signal
  975 0632  47          	LD B,A
  976                   
  977 0633  3A 18BA     SETCT1:	LD A,(MINMAX)
  978 0636  B7          	OR A
  979 0637  C2 063E     	JP NZ,SETCT2
  980                   
  981                   	; Mini
  982 063A  78          	LD A,B
  983 063B  F6 20       	OR 20H		; set FDC9293 Mini signal
  984 063D  47          	LD B,A
  985                   	
  986 063E              SETCT2:	; Mini/Maxi
Z80ASM SuperFast Relocating Macro Assembler     	    Z80ASM 1.32 Page  18
NFORM   Z80

  987 063E  3A 18B8     	LD A,(USER)
  988 0641  B7          	OR A
  989 0642  C2 065A     	JP NZ,SETCT5
  990                   	
  991                   	; USER=0: FLO1/FLO2 (C0h)
  992 0645  3A 18B9     	LD A,(FLOTYP)
  993 0648  FE 01       	CP 01H
  994 064A  C2 0653     	JP NZ,SETCT3
  995                   
  996                   	; FLO1 (C0h)
  997 064D  78          	LD A,B
  998 064E  EE 10       	XOR 10H		; invert density signal
  999 0650  C3 0654     	JP SETCT4
 1000                   
 1001 0653  78          SETCT3:	LD A,B
 1002                   
 1003 0654  C1          SETCT4:	POP BC
 1004 0655  D3 C4       	OUT (FLO4),A
 1005 0657  C3 0673     	JP SETCT7
 1006                   
 1007 065A  FE 01       SETCT5:	CP 1  
 1008 065C  C2 0668     	JP NZ,SETCT6
 1009                   	
 1010                   	; FLO1 Maxi (USER=1)
 1011 065F  78          	LD A,B
 1012 0660  C1          	POP BC
 1013 0661  EE 10       	XOR 10H  	; invert density signal
 1014 0663  D3 44       	OUT (FLOA4),A
 1015 0665  C3 0673     	JP SETCT7
 1016                   
 1017 0668  FE 02       SETCT6:	CP 2
 1018 066A  C2 0673     	JP NZ,SETCT7
 1019                   	
 1020                   	; FLO1 Mini (USER=2)
 1021 066D  78          	LD A,B
 1022 066E  C1          	POP BC
 1023 066F  EE 10       	XOR 10H  	; invert density signal
 1024 0671  D3 34       	OUT (FLOB4),A
 1025                   
 1026 0673  C9          SETCT7:	RET
 1027                   	
 1028                   ;-----------------------------------------------------------------------------
 1029                   ; Format track
 1030                   
 1031 0674  CD 0482     FRMTRK:	CALL DELAY
 1032 0677  FB          	EI
 1033 0678  CD 069C     	CALL FMT
 1034 067B  F3          	DI
 1035                   	
 1036                   	; check for lost data and write protection
 1037                   	
 1038 067C  3A 18B8     	LD A,(USER)
 1039 067F  B7          	OR A
 1040 0680  C2 0688     	JP NZ,FRMTR1
 1041                   	
 1042                   	; FLO1/FLO2 (C0h)
 1043 0683  DB C0       	IN A,(FLO0) 	; read status
 1044 0685  C3 0699     	JP FRMTR3
Z80ASM SuperFast Relocating Macro Assembler     	    Z80ASM 1.32 Page  19
NFORM   Z80

 1045                   
 1046 0688  FE 01       FRMTR1:	CP 1
 1047 068A  C2 0692     	JP NZ,FRMTR2
 1048                   	
 1049                   	; FLOW1 Maxi
 1050 068D  DB 40       	IN A,(FLOA0) 	; read status
 1051 068F  C3 0699     	JP FRMTR3
 1052                   
 1053 0692  FE 02       FRMTR2:	CP 2
 1054 0694  C2 0699     	JP NZ,FRMTR3
 1055                   	
 1056                   	; FLO1 Mini
 1057 0697  DB 30       	IN A,(FLOB0) 	; read status
 1058                   
 1059 0699  E6 44       FRMTR3:	AND 01000100B	; Bit 2=Lost Data, Bit 6=Write Protect
 1060 069B  C9          	RET
 1061                   
 1062                   ;-----------------------------------------------------------------------------
 1063                   
 1064 069C  CD 0623     FMT:	CALL SETSR 	; setup special register
 1065 069F  3A 18B8     	LD A,(USER)
 1066 06A2  B7          	OR A
 1067 06A3  C2 06C6     	JP NZ,FMT2
 1068                   
 1069                   	; FLO1/FLO2 (C0h)
 1070 06A6  21 18C9     	LD HL,FORMTAB 	; Startadresse 
 1071 06A9  0E C3       	LD C,FLO3 	; Datenport
 1072 06AB  3A 18C5     	LD A,(SIDESEL) 	; Side-Flag setzen, fuer SSO-Ausgang
 1073 06AE  E6 80       	AND 80H 	; wenn USESSO auf 80h gesetzt wird
 1074 06B0  07          	RLCA  		; BIT 0
 1075 06B1  07          	RLCA  		; BIT 1
 1076 06B2  E6 02       	AND 00000010B 	; Side select for FD1797 (SSO)
 1077 06B4  F6 F4       	OR 0F4H 	; 1111x1xx=Write track, Formatier-Befehl+nicht documentierter
 1078 06B6  D3 C0       	OUT (FLO0),A 	; Side-Select-Befehl fuer SSO
 1079                   
 1080 06B8              FMT1:	; format loop
 1081 06B8  DB C4       	IN A,(FLO4) 	; DRQ int head
 1082 06BA  07          	RLCA  		; DRQ -> carry
 1083 06BB  D2 06B8     	JP NC,FMT1 	; -> wait
 1084                   	
 1085                   	; ready
 1086 06BE  ED A3       	OUTI		; (HL) -> Port (C), length in B
 1087 06C0  C3 06B8     	JP FMT1 	; durch INT wird die Routine gestoppt.
 1088 06C3  C3 070D     	JP FMT6
 1089                   
 1090 06C6  FE 01       FMT2:	CP 1 
 1091 06C8  C2 06EB     	JP NZ,FMT4
 1092                   	
 1093                   	; FLO1 Maxi
 1094 06CB  21 18C9     	LD HL,FORMTAB 	; Startadresse 
 1095 06CE  0E 43       	LD C,FLOA3 	; Datenport
 1096 06D0  3A 18C5     	LD A,(SIDESEL) 	; Side-Flag setzen, fuer SSO-Ausgang
 1097 06D3  E6 80       	AND 80H 	; wenn USESSO auf 80h gesetzt wird
 1098 06D5  07          	RLCA  		; BIT 0
 1099 06D6  07          	RLCA  		; BIT 1
 1100 06D7  E6 02       	AND 00000010B 	; Side select for FD1797 (SSO)
 1101 06D9  F6 F4       	OR 0F4H 	; see FLO2
 1102 06DB  D3 40       	OUT (FLOA0),A
Z80ASM SuperFast Relocating Macro Assembler     	    Z80ASM 1.32 Page  20
NFORM   Z80

 1103                   
 1104 06DD              FMT3:	; wait for DRQ
 1105 06DD  DB 44       	IN A,(FLOA4) 	; drq int head
 1106 06DF  07          	RLCA  		; BIT 7 ins carry
 1107 06E0  D2 06DD     	JP NC,FMT3 	; -> wait
 1108                   	
 1109 06E3  ED A3       	OUTI		; (HL) -> Port (C), length in B
 1110 06E5  C3 06DD     	JP FMT3 	; durch INT wird die Routine gestoppt.
 1111 06E8  C3 070D     	JP FMT6
 1112                   
 1113 06EB  FE 02       FMT4:	CP 2 
 1114 06ED  C2 070D     	JP NZ,FMT6
 1115                   	
 1116                   	; FLO1 Mini
 1117 06F0  21 18C9     	LD HL,FORMTAB 	; Startadresse 
 1118 06F3  0E 33       	LD C,FLOB3 	; Datenport
 1119 06F5  3A 18C5     	LD A,(SIDESEL) 	; Side-Flag setzen, fuer SSO-Ausgang
 1120 06F8  E6 80       	AND 80H 	; wenn USESSO auf 80h gesetzt wird
 1121 06FA  07          	RLCA  		; BIT 0
 1122 06FB  07          	RLCA  		; BIT 1
 1123 06FC  E6 02       	AND 00000010B 	; Side select for FD1797 (SSO)
 1124 06FE  F6 F4       	OR 0F4H 	; see FLO2
 1125 0700  D3 30       	OUT (FLOB0),A
 1126                   
 1127 0702              FMT5:	; wait for DRQ
 1128 0702  DB 34       	IN A,(FLOB4) 	; DRQ int head
 1129 0704  07          	RLCA  		; BIT 7 ins carry
 1130 0705  D2 0702     	JP NC,FMT5 	; -> wait
 1131                   	
 1132 0708  ED A3       	OUTI		; (HL) -> Port (C), length in B
 1133 070A  C3 0702     	JP FMT5 	; durch INT wird die Routine gestoppt.
 1134                   
 1135 070D  C9          FMT6:	RET
 1136                   
 1137                   ;-----------------------------------------------------------------------------
 1138                   ; Main input loop
 1139                   	
 1140 070E              START:
 1141                   
 1142 070E              MAINLOOP:
 1143                   
 1144 070E  21 0F0E     	LD HL,HEADTXT	; Programm start message and format type
 1145 0711  CD 0B99     	CALL PRNMSG
 1146                   
 1147                   	; --- disk format selection ---
 1148                   	
 1149 0714              MAIN1:	; wait for 1..6
 1150 0714  CD 0106     	CALL CONIN
 1151 0717  FE 37       	CP '6'+1
 1152 0719  D2 0714     	JP NC,MAIN1
 1153 071C  FE 31       	CP '1'+0
 1154 071E  DA 0714     	JP C,MAIN1
 1155                   	
 1156 0721  F5          MAIN2:	PUSH AF
 1157 0722  AF          	XOR A
 1158 0723  32 18BB     	LD (ECMA),A 	; 0=no ECMA70 (default)
 1159 0726  32 18B8     	LD (USER),A 	; 0 = FLO1/FLO2 (C0h)
 1160 0729  3E E5       	LD A,0E5H
Z80ASM SuperFast Relocating Macro Assembler     	    Z80ASM 1.32 Page  21
NFORM   Z80

 1161 072B  32 18BE     	LD (FILLER),A 	; Filler ist normalerweise E5h
 1162 072E  AF          	XOR A
 1163 072F  32 18C5     	LD (SIDESEL),A 	; no SSO (default)
 1164 0732  32 18C6     	LD (USESSO),A	; auch nicht bei Kopfwechsel 
 1165 0735  F1          	POP AF
 1166                   	
 1167 0736  FE 31       	CP '1' 
 1168 0738  C2 074E     	JP NZ,MAIN3
 1169                   	
 1170                   	; Format 1: Mini 5 1/4"
 1171                   	; MINMAX = 0
 1172 073B  AF          	XOR A		; 0 = Mini
 1173 073C  32 18BA     	LD (MINMAX),A
 1174 073F  CD 0933     	CALL SELTRK
 1175 0742  CD 0979     	CALL SELSID
 1176 0745  CD 09B4     	CALL SELDEN
 1177 0748  CD 09D7     	CALL SELSEC
 1178 074B  C3 07FF     	JP MAIN8
 1179                   	
 1180 074E  FE 32       MAIN3:	CP '2' 
 1181 0750  C2 0767     	JP NZ,MAIN4
 1182                   	
 1183                   	; Format 2: Maxi 8"
 1184                   	; MINMAX = 1
 1185 0753  3E 01       	LD A,1		; 1 = Maxi
 1186 0755  32 18BA     	LD (MINMAX),A
 1187 0758  CD 0933     	CALL SELTRK
 1188 075B  CD 0979     	CALL SELSID
 1189 075E  CD 09B4     	CALL SELDEN
 1190 0761  CD 09D7     	CALL SELSEC
 1191 0764  C3 07FF     	JP MAIN8
 1192                   
 1193 0767  FE 33       MAIN4:	CP '3'
 1194 0769  C2 0793     	JP NZ,MAIN5
 1195                   	
 1196                   	; Format 3: Std  8" SD SD 77 Spur
 1197 076C  3E 01       	LD A,1		; Maxi disk
 1198 076E  32 18BA     	LD (MINMAX),A
 1199 0771  21 0080     	LD HL,128 	; 128 bytes per sector
 1200 0774  22 18BC     	LD (BYTCNT),HL
 1201 0777  3E 00       	LD A,0 		; single-density
 1202 0779  32 18BF     	LD (DENSITY),A
 1203 077C  3E 1B       	LD A,27 	; gap lenght 27
 1204 077E  32 18C0     	LD (GAPLEN),A
 1205 0781  3E 00       	LD A,0 		; single-sided
 1206 0783  32 18C2     	LD (SSDS),A
 1207 0786  3E 1A       	LD A,26 	; 26 sectors
 1208 0788  32 18C3     	LD (SECCNT),A
 1209 078B  3E 4D       	LD A,77 	; 77 tracks
 1210 078D  32 18C1     	LD (TRKCNT),A
 1211 0790  C3 07FF     	JP MAIN8
 1212                   
 1213 0793  FE 34       MAIN5:	CP '4' 
 1214 0795  C2 07C6     	JP NZ,MAIN6
 1215                   
 1216                   	; Format 4: ECMA 70 DD SD 40 Spur
 1217 0798  AF          	XOR A		; Mini disk
 1218 0799  32 18BA     	LD (MINMAX),A
Z80ASM SuperFast Relocating Macro Assembler     	    Z80ASM 1.32 Page  22
NFORM   Z80

 1219 079C  3E 01       	LD A,1	 	; Spezialformat SD erste Spur
 1220 079E  32 18BB     	LD (ECMA),A 	; wenn rueckseite dann mit Bit
 1221 07A1  32 18C6     	LD (USESSO),A	; REST in ECMA doppelt
 1222 07A4  21 0100     	LD HL,256 	; 256 bytes per sector
 1223 07A7  22 18BC     	LD (BYTCNT),HL
 1224 07AA  3E 01       	LD A,1		; double-density
 1225 07AC  32 18BF     	LD (DENSITY),A
 1226 07AF  3E 00       	LD A,0		; single-sided
 1227 07B1  32 18C2     	LD (SSDS),A
 1228 07B4  3E 10       	LD A,16 	; 16 sectors
 1229 07B6  32 18C3     	LD (SECCNT),A
 1230 07B9  3E 36       	LD A,54		; gap length 54
 1231 07BB  32 18C0     	LD (GAPLEN),A
 1232 07BE  3E 28       	LD A,40 	; 40 tracks
 1233 07C0  32 18C1     	LD (TRKCNT),A
 1234 07C3  C3 07FF     	JP MAIN8
 1235                   
 1236 07C6  FE 35       MAIN6:	CP '5' 
 1237 07C8  C2 07F7     	JP NZ,MAIN7
 1238                   
 1239                   	; Format 5: NDR- DD DS 80 Spur
 1240 07CB  3E 00       	LD A,0 		; Mini disk
 1241 07CD  32 18BA     	LD (MINMAX),A
 1242 07D0  21 0400     	LD HL,1024 	; 1024 bytes per sector
 1243 07D3  22 18BC     	LD (BYTCNT),HL
 1244 07D6  3E 01       	LD A,1 		; double-density
 1245 07D8  32 18BF     	LD (DENSITY),A
 1246 07DB  3E 36       	LD A,54 	; gap length 3
 1247 07DD  32 18C0     	LD (GAPLEN),A
 1248 07E0  3E 05       	LD A,5		; 5 sectors
 1249 07E2  32 18C3     	LD (SECCNT),A
 1250 07E5  3E 01       	LD A,1 		; double-sided
 1251 07E7  32 18C2     	LD (SSDS),A
 1252 07EA  3E 01       	LD A,1		; side bit
 1253 07EC  32 18C6     	LD (USESSO),A 	; und mit Side-Bit
 1254 07EF  3E 50       	LD A,80 	; 80 tracks (0..79)
 1255 07F1  32 18C1     	LD (TRKCNT),A
 1256 07F4  C3 07FF     	JP MAIN8
 1257                   
 1258 07F7  FE 36       MAIN7:	CP '6' 
 1259 07F9  C2 07FF     	JP NZ,MAIN8
 1260                   	
 1261 07FC  C3 091F     	JP MAIN35	; -> exit
 1262                   	
 1263                   	; --- FLO type selection ---
 1264                   
 1265 07FF  21 14FA     MAIN8:	LD HL,MENUE7 	; FLO type
 1266 0802  CD 0B99     	CALL PRNMSG
 1267                   
 1268 0805              MAIN9:	; wait for 1..3
 1269 0805  CD 0106     	CALL CONIN
 1270 0808  FE 35       	CP '4'+1
 1271 080A  30 05       	JR NC,MAIN10
 1272 080C  FE 31       	CP '1'+0
 1273 080E  D2 0816     	JP NC,MAIN11
 1274                   	
 1275 0811  FE 0D       MAIN10:	CP 0DH
 1276 0813  C2 0805     	JP NZ,MAIN9
Z80ASM SuperFast Relocating Macro Assembler     	    Z80ASM 1.32 Page  23
NFORM   Z80

 1277                   
 1278 0816  FE 32       MAIN11:	CP '2'
 1279 0818  C2 0820     	JP NZ,MAIN12
 1280                   	
 1281                   	; FLO type 2: FLO1 Maxi (40h)
 1282                   	; FLOTYP = 0
 1283                   	; USER = 1
 1284 081B  3E 01       	LD A,1 	; FLO1, maxi
 1285 081D  C3 0841     	JP MAIN15
 1286                   	
 1287 0820  FE 33       MAIN12:	CP '3'
 1288 0822  C2 082A     	JP NZ,MAIN13
 1289                   
 1290                   	; FLO type 3: FLO1 Mini (30h)
 1291 0825  3E 02       	LD A,2 	; FLO2, mini
 1292                   	; FLOTYP = 0
 1293                   	; USER = 2
 1294 0827  C3 0841     	JP MAIN15
 1295                   	
 1296 082A  FE 34       MAIN13:	CP '4'
 1297 082C  C2 0838     	JP NZ,MAIN14
 1298                   	
 1299                   	; FLO type 4: FLO1-Maxi/Mini (0C0h)
 1300                   	; FLOTYP = 1
 1301                   	; USER = 0
 1302 082F  3E 01       	LD A,01H
 1303 0831  32 18B9     	LD (FLOTYP),A
 1304 0834  AF          	XOR A  	; FLO2 Mini/maxi
 1305 0835  C3 0841     	JP MAIN15
 1306                   	
 1307 0838  FE 31       MAIN14:	CP '1'
 1308 083A  C2 0841     	JP NZ,MAIN15
 1309                   	
 1310                   	; FLO type 1: FLO2-Maxi/Mini (0C0h)
 1311                   	; FLOTYP = 0
 1312                   	; USER = 0
 1313 083D  AF          	XOR A
 1314 083E  32 18B9     	LD (FLOTYP),A
 1315                   	
 1316 0841  32 18B8     MAIN15:	LD (USER),A
 1317                   
 1318                   	; --- drive selection ---
 1319                   
 1320 0844  21 13EA     MAIN16:	LD HL,MENUE6 	; drive
 1321 0847  CD 0B99     	CALL PRNMSG
 1322                   
 1323 084A              MAIN17:	; wait for 0..9
 1324 084A  CD 0106     	CALL CONIN
 1325 084D  FE 3A       	CP '9'+1
 1326 084F  D2 084A     	JP NC,MAIN17
 1327 0852  FE 30       	CP '0'+0
 1328 0854  DA 084A     	JP C,MAIN17
 1329                   	
 1330                   	; 1..8
 1331 0857  FE 39       	CP '8'+1
 1332 0859  D2 08C6     	JP NC,MAIN27
 1333 085C  FE 31       	CP '1'+0
 1334 085E  DA 08C6     	JP C,MAIN27
Z80ASM SuperFast Relocating Macro Assembler     	    Z80ASM 1.32 Page  24
NFORM   Z80

 1335                   
 1336 0861  FE 31       	CP '1'
 1337 0863  C2 086B     	JP NZ,MAIN18
 1338                   	
 1339                   	; drive 1: A
 1340 0866  3E 01       	LD A,1
 1341 0868  C3 08AE     	JP MAIN25
 1342                   
 1343 086B  FE 32       MAIN18:	CP '2'
 1344 086D  C2 0875     	JP NZ,MAIN19
 1345                   	
 1346                   	; drive 2: B
 1347 0870  3E 02       	LD A,2
 1348 0872  C3 08AE     	JP MAIN25
 1349                   
 1350 0875  FE 33       MAIN19:	CP '3'
 1351 0877  C2 087F     	JP NZ,MAIN20
 1352                   	
 1353                   	; drive 3: C
 1354 087A  3E 04       	LD A,4
 1355 087C  C3 08AE     	JP MAIN25
 1356                   	
 1357 087F  FE 34       MAIN20:	CP '4'
 1358 0881  C2 0889     	JP NZ,MAIN21
 1359                   	
 1360                   	; drive 4: D
 1361 0884  3E 08       	LD A,8
 1362 0886  C3 08AE     	JP MAIN25
 1363                   	
 1364 0889  FE 35       MAIN21:	CP '5'
 1365 088B  C2 0893     	JP NZ,MAIN22
 1366                   
 1367                   	; drive 5: A backside A
 1368 088E  3E 81       	LD A,81H
 1369 0890  C3 08AE     	JP MAIN25
 1370                   	
 1371 0893  FE 36       MAIN22:	CP '6'
 1372 0895  C2 089D     	JP NZ,MAIN23
 1373                   
 1374                   	; drive 6: B backside B
 1375 0898  3E 82       	LD A,82H
 1376 089A  C3 08AE     	JP MAIN25
 1377                   	
 1378 089D  FE 37       MAIN23:	CP '7'
 1379 089F  C2 08A7     	JP NZ,MAIN24
 1380                   	
 1381                   	; drive 7: C backside C
 1382 08A2  3E 84       	LD A,84H
 1383 08A4  C3 08AE     	JP MAIN25
 1384                   	
 1385 08A7  FE 38       MAIN24:	CP '8'
 1386 08A9  C2 08AE     	JP NZ,MAIN25
 1387                   	
 1388 08AC  3E 88       	LD A,88H
 1389                   
 1390 08AE  32 18C4     MAIN25:	LD (DRIVE),A
 1391 08B1  3A 18C6     	LD A,(USESSO)
 1392 08B4  B7          	OR A
Z80ASM SuperFast Relocating Macro Assembler     	    Z80ASM 1.32 Page  25
NFORM   Z80

 1393 08B5  CA 08C3     	JP Z,MAIN26		; -> no SSO
 1394                   
 1395                   	; SSO
 1396 08B8  3A 18C4     	LD A,(DRIVE)
 1397 08BB  E6 80       	AND 80H
 1398 08BD  CA 08C3     	JP Z,MAIN26
 1399                   	
 1400 08C0  32 18C5     	LD (SIDESEL),A 	; wenn Flag, dann Rueckseite mit side-bit
 1401                   			; FUER ECMA-70 wichtig.
 1402 08C3  C3 08DF     MAIN26:	JP MAIN30
 1403                   
 1404 08C6  FE 39       MAIN27:	CP '9'
 1405 08C8  C2 08D1     	JP NZ,MAIN28
 1406                   	
 1407                   	; '9'
 1408 08CB  C3 070E     	JP MAINLOOP 	; neue Parameter
 1409 08CE  C3 08DF     	JP MAIN30
 1410                   	
 1411 08D1  FE 30       MAIN28:	CP '0'
 1412 08D3  C2 08DC     	JP NZ,MAIN29
 1413                   
 1414                   	; '0'
 1415 08D6  C3 091F     	JP MAIN35 	; -> exit
 1416 08D9  C3 08DF     	JP MAIN30
 1417                   	
 1418 08DC  C3 0844     MAIN29:	JP MAIN16 	; -> inner loop, mit gleichen Parametern
 1419                   
 1420                   	;---------------------------------------------------------------------
 1421                   	; call formatter, when ready output control values
 1422                   
 1423 08DF  CD 0BA8     MAIN30:	CALL PRNPRM
 1424                   
 1425 08E2  21 0EDC     	LD HL,FORMTXT
 1426 08E5  CD 0B99     	CALL PRNMSG
 1427                   	
 1428                   	; wait for 'J' / 'j'
 1429 08E8  CD 0106     	CALL CONIN
 1430 08EB  FE 4A       	CP 'J'
 1431 08ED  CA 0904     	JP Z,MAIN31
 1432 08F0  FE 6A       	CP 'j'
 1433 08F2  CA 0904     	JP Z,MAIN31
 1434 08F5  FE 6E       	CP 'n'
 1435 08F7  CA 0904     	JP Z,MAIN31
 1436 08FA  FE 4E       	CP 'N'
 1437 08FC  CA 0904     	JP Z,MAIN31
 1438 08FF  FE 03       	CP 3		; ctrl-c
 1439 0901  C2 08DF     	JP NZ,MAIN30
 1440                   
 1441 0904  FE 6E       MAIN31:	CP 'n'
 1442 0906  CA 090E     	JP Z,MAIN32
 1443 0909  FE 4E       	CP 'N'
 1444 090B  C2 0911     	JP NZ,MAIN33
 1445                   
 1446 090E  C3 070E     MAIN32:	JP START 	; Neustarten, von vorne
 1447                   
 1448 0911  FE 03       MAIN33:	CP 3		; ctrl-c
 1449 0913  C2 0919     	JP NZ,MAIN34
 1450                   
Z80ASM SuperFast Relocating Macro Assembler     	    Z80ASM 1.32 Page  26
NFORM   Z80

 1451                   	; ctrl-c
 1452 0916  C3 091F     	JP MAIN35 	; Abbruch CTRL-C
 1453                   	
 1454 0919  CD 0116     MAIN34:	CALL FORMAT
 1455                   
 1456                   	; end of formatting
 1457 091C  C3 0844     	JP MAIN16 	; -> inner loop, mit gleichen Parametern
 1458                   		
 1459 091F  21 1866     MAIN35:	LD HL,FIMSG	; end messaghe (insert system-disk)
 1460 0922  CD 0B99     	CALL PRNMSG
 1461                   
 1462 0925              MAIN36:	; wait for CR
 1463 0925  CD 0106     	CALL CONIN
 1464 0928  FE 0D       	CP 0DH
 1465 092A  C2 0925     	JP NZ,MAIN36
 1466                   	
 1467 092D  ED 46       	IM 0  		; SAVETY bei FLO1, ggf IM0-Mode verwendet
 1468 092F  CD 0000     	CALL 0  	; daher ruecksetzen.
 1469 0932  C9          	RET
 1470                   
 1471                   ;-----------------------------------------------------------------------------
 1472                   ; Track selection menu (35/40/70/77/80)
 1473                   
 1474 0933  21 10AE     SELTRK:	LD HL,MENUE3
 1475 0936  CD 0B99     	CALL PRNMSG
 1476                   
 1477 0939              SELTR1:	; wait for '1'..'5'
 1478 0939  CD 0106     	CALL CONIN
 1479 093C  FE 36       	CP '5'+1
 1480 093E  D2 0939     	JP NC,SELTR1
 1481 0941  FE 31       	CP '1'+0
 1482 0943  DA 0939     	JP C,SELTR1
 1483                   
 1484 0946  FE 31       	CP '1'
 1485 0948  C2 0950     	JP NZ,SELTR2
 1486                   
 1487                   	; '1': 35 tracks
 1488 094B  3E 23       	LD A,35
 1489 094D  C3 0975     	JP SELTR7
 1490                   
 1491 0950  FE 32       SELTR2:	CP '2'
 1492 0952  C2 095A     	JP NZ,SELTR3
 1493                   	
 1494                   	; '2': 40 tracks
 1495 0955  3E 28       	LD A,40
 1496 0957  C3 0975     	JP SELTR7
 1497                   
 1498 095A  FE 33       SELTR3:	CP '3'
 1499 095C  C2 0964     	JP NZ,SELTR4
 1500                   	
 1501                   	; '3': 70 tracks
 1502 095F  3E 46       	LD A,70
 1503 0961  C3 0975     	JP SELTR7
 1504                   	
 1505 0964  FE 34       SELTR4:	CP '4'
 1506 0966  C2 096E     	JP NZ,SELTR5
 1507                   	
 1508                   	; '4'; 77 tracks
Z80ASM SuperFast Relocating Macro Assembler     	    Z80ASM 1.32 Page  27
NFORM   Z80

 1509 0969  3E 4D       	LD A,77
 1510 096B  C3 0975     	JP SELTR7
 1511                   	
 1512 096E  FE 35       SELTR5:	CP '5'
 1513 0970  C2 0975     	JP NZ,SELTR6
 1514                   	
 1515                   	; '5': 80 traacks
 1516 0973  3E 50       	LD A,80
 1517                   
 1518 0975              SELTR6:	; all other inputs: invalid???
 1519                   
 1520 0975  32 18C1     SELTR7:	LD (TRKCNT),A
 1521 0978  C9          	RET
 1522                   	
 1523                   ;-----------------------------------------------------------------------------
 1524                   ; Side selection menu (SS/DS/SSO)
 1525                   
 1526 0979  21 1104     SELSID:	LD HL,MENUE4
 1527 097C  CD 0B99     	CALL PRNMSG
 1528                   	
 1529 097F              SELSI1:	; wait for '1'..'3'
 1530 097F  CD 0106     	CALL CONIN
 1531 0982  FE 34       	CP '3'+1
 1532 0984  D2 097F     	JP NC,SELSI1
 1533 0987  FE 31       	CP '1'+0
 1534 0989  DA 097F     	JP C,SELSI1
 1535                   
 1536 098C  FE 31       	CP '1'
 1537 098E  C2 0999     	JP NZ,SELSI2
 1538                   	
 1539                   	; '1': single-sided
 1540 0991  3E 00       	LD A,0  
 1541 0993  32 18C2     	LD (SSDS),A	; single-sided
 1542 0996  C3 09B0     	JP SELSI4
 1543                   	
 1544 0999  FE 32       SELSI2:	CP '2'
 1545 099B  C2 09A6     	JP NZ,SELSI3
 1546                   	
 1547                   	; '2': double-sided
 1548 099E  3E 01       	LD A,1
 1549 09A0  32 18C2     	LD (SSDS),A	; double-sided
 1550 09A3  C3 09B0     	JP SELSI4
 1551                   	
 1552 09A6              SELSI3:	; all other inputs: double-sided with SSO
 1553 09A6  3E 01       	LD A,1
 1554 09A8  32 18C2     	LD (SSDS),A	; double-sided
 1555 09AB  3E 01       	LD A,1
 1556 09AD  32 18C6     	LD (USESSO),A	; use SSO
 1557                   	
 1558 09B0  32 18C2     SELSI4:	LD (SSDS),A 	; single-sided=0, double-sided=1
 1559 09B3  C9          	RET
 1560                   
 1561                   ;-----------------------------------------------------------------------------
 1562                   ; Density selection menu
 1563                   
 1564 09B4  21 1070     SELDEN:	LD HL,MENUE2
 1565 09B7  CD 0B99     	CALL PRNMSG
 1566                   
Z80ASM SuperFast Relocating Macro Assembler     	    Z80ASM 1.32 Page  28
NFORM   Z80

 1567 09BA              SELDE1:	; wait for '1'..'2'
 1568 09BA  CD 0106     	CALL CONIN
 1569 09BD  FE 33       	CP '2'+1
 1570 09BF  D2 09BA     	JP NC,SELDE1
 1571 09C2  FE 31       	CP '1'+0
 1572 09C4  DA 09BA     	JP C,SELDE1
 1573                   	
 1574 09C7  FE 31       	CP '1'
 1575 09C9  C2 09D1     	JP NZ,SELDE2
 1576                   
 1577                   	; '1': single-density
 1578 09CC  3E 00       	LD A,0		; single-density
 1579 09CE  C3 09D3     	JP SELDE3
 1580                   
 1581 09D1              SELDE2:	; all other inputs: double-density
 1582 09D1  3E 01       	LD A,1 		; double-density
 1583                   
 1584 09D3  32 18BF     SELDE3:	LD (DENSITY),A
 1585 09D6  C9          	RET
 1586                   	
 1587                   ;-----------------------------------------------------------------------------
 1588                   ; Sector selection menu
 1589                   ;	256 bytes / 16 per track)
 1590                   ;	512 bytes / 9 per track)
 1591                   ;	512 bytes / 10 per track)
 1592                   ;	1024 bytes / 5 per track)
 1593                   
 1594 09D7  3A 18BA     SELSEC:	LD A,(MINMAX)
 1595 09DA  B7          	OR A
 1596 09DB  C2 0AB3     	JP NZ,SELSE13	; -> Maxi
 1597                   	
 1598                   	; --- 0 = Mini ---
 1599 09DE  3A 18BF     	LD A,(DENSITY)
 1600 09E1  B7          	OR A
 1601 09E2  C2 0A40     	JP NZ,SELSE6
 1602                   	
 1603                   	; --- mini, single-density ---
 1604                   	
 1605 09E5  21 1164     	LD HL,MENUE5A
 1606 09E8  CD 0B99     	CALL PRNMSG
 1607                   	
 1608 09EB              SELSE1:	; wait for '1'..'3'
 1609 09EB  CD 0106     	CALL CONIN
 1610 09EE  FE 34       	CP '3'+1
 1611 09F0  D2 09EB     	JP NC,SELSE1
 1612 09F3  FE 31       	CP '1'+0
 1613 09F5  DA 09EB     	JP C,SELSE1
 1614                   	
 1615 09F8  FE 31       	CP '1'
 1616 09FA  C2 0A10     	JP NZ,SELSE2
 1617                   
 1618                   	; '1': 128 bytes per sector, 16 sectors per track
 1619 09FD  21 0080     	LD HL,128
 1620 0A00  22 18BC     	LD (BYTCNT),HL
 1621 0A03  3E 10       	LD A,16
 1622 0A05  32 18C3     	LD (SECCNT),A
 1623 0A08  3E 1B       	LD A,27
 1624 0A0A  32 18C0     	LD (GAPLEN),A
Z80ASM SuperFast Relocating Macro Assembler     	    Z80ASM 1.32 Page  29
NFORM   Z80

 1625 0A0D  C3 0A3D     	JP SELSE5
 1626                   
 1627 0A10  FE 32       SELSE2:	CP '2'
 1628 0A12  C2 0A28     	JP NZ,SELSE3
 1629                   
 1630                   	; '2': 128 bytes per sector, 18 sectors per track
 1631 0A15  21 0080     	LD HL,128
 1632 0A18  22 18BC     	LD (BYTCNT),HL
 1633 0A1B  3E 12       	LD A,18
 1634 0A1D  32 18C3     	LD (SECCNT),A
 1635 0A20  3E 0A       	LD A,10
 1636 0A22  32 18C0     	LD (GAPLEN),A
 1637 0A25  C3 0A3D     	JP SELSE5
 1638                   	
 1639 0A28  FE 33       SELSE3:	CP '3'
 1640 0A2A  C2 0A3D     	JP NZ,SELSE4
 1641                   	
 1642                   	; '3': 256 bytes per sector, 10 sectors per track
 1643 0A2D  21 0100     	LD HL,256
 1644 0A30  22 18BC     	LD (BYTCNT),HL
 1645 0A33  3E 0A       	LD A,10
 1646 0A35  32 18C3     	LD (SECCNT),A
 1647 0A38  3E 10       	LD A,16
 1648 0A3A  32 18C0     	LD (GAPLEN),A
 1649                   
 1650 0A3D              SELSE4:	; all other inputs: invalid ???
 1651                   
 1652 0A3D  C3 0AB0     SELSE5:	JP SELSE12
 1653                   
 1654 0A40              SELSE6:	; --- mini, double-density ---
 1655                   
 1656 0A40  21 11E8     	LD HL,MENUE5B
 1657 0A43  CD 0B99     	CALL PRNMSG
 1658                   
 1659 0A46              SELSE7:	; wait for '1'..'4'
 1660 0A46  CD 0106     	CALL CONIN
 1661 0A49  FE 35       	CP '4'+1
 1662 0A4B  D2 0A46     	JP NC,SELSE7
 1663 0A4E  FE 31       	CP '1'+0
 1664 0A50  DA 0A46     	JP C,SELSE7
 1665                   
 1666 0A53  FE 31       	CP '1'
 1667 0A55  C2 0A6B     	JP NZ,SELSE8
 1668                   	
 1669                   	; '1': 256 bytes per sector, 16 sectors per track
 1670 0A58  21 0100     	LD HL,256
 1671 0A5B  22 18BC     	LD (BYTCNT),HL
 1672 0A5E  3E 10       	LD A,16
 1673 0A60  32 18C3     	LD (SECCNT),A
 1674 0A63  3E 36       	LD A,54
 1675 0A65  32 18C0     	LD (GAPLEN),A
 1676 0A68  C3 0AB0     	JP SELSE12
 1677                   	
 1678 0A6B  FE 32       SELSE8:	CP '2'
 1679 0A6D  C2 0A83     	JP NZ,SELSE9
 1680                   	
 1681                   	; '2': 512 bytes per sector, 9 sectors per track
 1682 0A70  21 0200     	LD HL,512
Z80ASM SuperFast Relocating Macro Assembler     	    Z80ASM 1.32 Page  30
NFORM   Z80

 1683 0A73  22 18BC     	LD (BYTCNT),HL
 1684 0A76  3E 09       	LD A,9
 1685 0A78  32 18C3     	LD (SECCNT),A
 1686 0A7B  3E 36       	LD A,54
 1687 0A7D  32 18C0     	LD (GAPLEN),A
 1688 0A80  C3 0AB0     	JP SELSE12
 1689                   	
 1690 0A83  FE 33       SELSE9:	CP '3'
 1691 0A85  C2 0A9B     	JP NZ,SELSE10
 1692                   	
 1693                   	; '3': 512 bytes per sector, 10 sectors per track
 1694 0A88  21 0200     	LD HL,512
 1695 0A8B  22 18BC     	LD (BYTCNT),HL
 1696 0A8E  3E 0A       	LD A,10
 1697 0A90  32 18C3     	LD (SECCNT),A
 1698 0A93  3E 28       	LD A,40
 1699 0A95  32 18C0     	LD (GAPLEN),A
 1700 0A98  C3 0AB0     	JP SELSE12
 1701                   	
 1702 0A9B  FE 34       SELSE10:CP '4'
 1703 0A9D  C2 0AB0     	JP NZ,SELSE11
 1704                   	
 1705                   	; '3': 1024 bytes per sector, 5 sectors per track
 1706 0AA0  21 0400     	LD HL,1024
 1707 0AA3  22 18BC     	LD (BYTCNT),HL
 1708 0AA6  3E 05       	LD A,5
 1709 0AA8  32 18C3     	LD (SECCNT),A
 1710 0AAB  3E 36       	LD A,54
 1711 0AAD  32 18C0     	LD (GAPLEN),A
 1712                   
 1713 0AB0              SELSE11:; all other inputs: invalid ???
 1714                   
 1715 0AB0  C3 0B98     SELSE12:JP SELSE25	; -> ret
 1716                   
 1717                   	; --- Maxi ---
 1718                   	
 1719 0AB3  3A 18BF     SELSE13:LD A,(DENSITY)
 1720 0AB6  B7          	OR A
 1721 0AB7  C2 0AF8     	JP NZ,SELSE17
 1722                   	
 1723                   	; maxi, single-density
 1724 0ABA  21 1296     	LD HL,MENUE5C
 1725 0ABD  CD 0B99     	CALL PRNMSG
 1726                   
 1727 0AC0              SELSE14:; wait for '1'..'2'
 1728 0AC0  CD 0106     	CALL CONIN
 1729 0AC3  FE 33       	CP '2'+1
 1730 0AC5  D2 0AC0     	JP NC,SELSE14
 1731 0AC8  FE 31       	CP '1'+0
 1732 0ACA  DA 0AC0     	JP C,SELSE14
 1733                   
 1734 0ACD  FE 31       	CP '1'
 1735 0ACF  C2 0AE5     	JP NZ,SELSE15
 1736                   	
 1737                   	; '1': 128 bytes per sector, 26 sectors per track
 1738 0AD2  21 0080     	LD HL,128
 1739 0AD5  22 18BC     	LD (BYTCNT),HL
 1740 0AD8  3E 1A       	LD A,26
Z80ASM SuperFast Relocating Macro Assembler     	    Z80ASM 1.32 Page  31
NFORM   Z80

 1741 0ADA  32 18C3     	LD (SECCNT),A
 1742 0ADD  3E 1B       	LD A,27
 1743 0ADF  32 18C0     	LD (GAPLEN),A
 1744 0AE2  C3 0AF5     	JP SELSE16
 1745                   	
 1746 0AE5              SELSE15:; all other: 256 bytes per sector, 15 sectors per track
 1747 0AE5  21 0100     	LD HL,256
 1748 0AE8  22 18BC     	LD (BYTCNT),HL
 1749 0AEB  3E 0F       	LD A,15
 1750 0AED  32 18C3     	LD (SECCNT),A
 1751 0AF0  3E 1B       	LD A,27
 1752 0AF2  32 18C0     	LD (GAPLEN),A
 1753                   	
 1754 0AF5  C3 0B98     SELSE16:JP SELSE25	; -> ret
 1755                   
 1756                   	; maxi, double-density
 1757                   
 1758 0AF8  21 12EE     SELSE17:LD HL,MENUE5D
 1759 0AFB  CD 0B99     	CALL PRNMSG
 1760                   	
 1761 0AFE              SELSE18:; wait for '1'..'6'
 1762 0AFE  CD 0106     	CALL CONIN
 1763 0B01  FE 37       	CP '6'+1
 1764 0B03  D2 0AFE     	JP NC,SELSE18
 1765 0B06  FE 31       	CP '1'+0
 1766 0B08  DA 0AFE     	JP C,SELSE18
 1767                   
 1768 0B0B  FE 31       	CP '1'
 1769 0B0D  C2 0B23     	JP NZ,SELSE19
 1770                   	
 1771                   	; '1': 256 bytes per sector, 26 sectors per track
 1772 0B10  21 0100     	LD HL,256
 1773 0B13  22 18BC     	LD (BYTCNT),HL
 1774 0B16  3E 1A       	LD A,26
 1775 0B18  32 18C3     	LD (SECCNT),A
 1776 0B1B  3E 36       	LD A,54
 1777 0B1D  32 18C0     	LD (GAPLEN),A
 1778 0B20  C3 0B98     	JP SELSE25
 1779                   	
 1780 0B23  FE 32       SELSE19:CP '2'
 1781 0B25  C2 0B3B     	JP NZ,SELSE20
 1782                   	
 1783                   	; '2': 512 bytes per sector, 14 sectors per track
 1784 0B28  21 0200     	LD HL,512
 1785 0B2B  22 18BC     	LD (BYTCNT),HL
 1786 0B2E  3E 0E       	LD A,14
 1787 0B30  32 18C3     	LD (SECCNT),A
 1788 0B33  3E 36       	LD A,54
 1789 0B35  32 18C0     	LD (GAPLEN),A
 1790 0B38  C3 0B98     	JP SELSE25
 1791                   	
 1792 0B3B  FE 33       SELSE20:CP '3'
 1793 0B3D  C2 0B53     	JP NZ,SELSE21
 1794                   	
 1795                   	; '3': 512 bytes per sector, 15 sectors per track
 1796 0B40  21 0200     	LD HL,512
 1797 0B43  22 18BC     	LD (BYTCNT),HL
 1798 0B46  3E 0F       	LD A,15
Z80ASM SuperFast Relocating Macro Assembler     	    Z80ASM 1.32 Page  32
NFORM   Z80

 1799 0B48  32 18C3     	LD (SECCNT),A
 1800 0B4B  3E 36       	LD A,54
 1801 0B4D  32 18C0     	LD (GAPLEN),A
 1802 0B50  C3 0B98     	JP SELSE25
 1803                   	
 1804 0B53  FE 34       SELSE21:CP '4'
 1805 0B55  C2 0B6B     	JP NZ,SELSE22
 1806                   	
 1807                   	; '4': 512 bytes per sector, 16 sectors per track
 1808 0B58  21 0200     	LD HL,512
 1809 0B5B  22 18BC     	LD (BYTCNT),HL
 1810 0B5E  3E 10       	LD A,16
 1811 0B60  32 18C3     	LD (SECCNT),A
 1812 0B63  3E 28       	LD A,40
 1813 0B65  32 18C0     	LD (GAPLEN),A
 1814 0B68  C3 0B98     	JP SELSE25
 1815                   	
 1816 0B6B  FE 35       SELSE22:CP '5'
 1817 0B6D  C2 0B83     	JP NZ,SELSE23
 1818                   	
 1819                   	; '5': 1024 bytes per sector, 8 sectors per track
 1820 0B70  21 0400     	LD HL,1024
 1821 0B73  22 18BC     	LD (BYTCNT),HL
 1822 0B76  3E 08       	LD A,8
 1823 0B78  32 18C3     	LD (SECCNT),A
 1824 0B7B  3E 36       	LD A,54
 1825 0B7D  32 18C0     	LD (GAPLEN),A
 1826 0B80  C3 0B98     	JP SELSE25
 1827                   	
 1828 0B83  FE 36       SELSE23:CP '6'
 1829 0B85  C2 0B98     	JP NZ,SELSE24
 1830                   	
 1831                   	; '6': 1024 bytes per sector, 9 sectors per track
 1832 0B88  21 0400     	LD HL,1024
 1833 0B8B  22 18BC     	LD (BYTCNT),HL
 1834 0B8E  3E 09       	LD A,9
 1835 0B90  32 18C3     	LD (SECCNT),A
 1836 0B93  3E 28       	LD A,40
 1837 0B95  32 18C0     	LD (GAPLEN),A
 1838                   
 1839 0B98              SELSE24:; all other inputs: invalid
 1840                   
 1841 0B98  C9          SELSE25:RET
 1842                   	
 1843                   ;-----------------------------------------------------------------------------
 1844                   ; Print 0-terminated message, address in HL
 1845                   	
 1846 0B99  7E          PRNMSG:	LD A,(HL)
 1847                   
 1848 0B9A  B7          PRNTM1:	OR A
 1849 0B9B  CA 0BA7     	JP Z,PRNTM2
 1850                   	
 1851 0B9E  4F          	LD C,A
 1852 0B9F  CD 0103     	CALL CONOUT
 1853 0BA2  23          	INC HL
 1854 0BA3  7E          	LD A,(HL)
 1855 0BA4  C3 0B9A     	JP PRNTM1
 1856                   
Z80ASM SuperFast Relocating Macro Assembler     	    Z80ASM 1.32 Page  33
NFORM   Z80

 1857 0BA7  C9          PRNTM2:	RET
 1858                   
 1859                   ;-----------------------------------------------------------------------------
 1860                   ; Print floppy parameters
 1861                   
 1862 0BA8  0E 1A       PRNPRM:	LD C,1AH	; clear screen
 1863 0BAA  CD 0103     	CALL CONOUT
 1864                   
 1865                   	; --- mini / maxi ---
 1866                   
 1867 0BAD  3A 18BA     	LD A,(MINMAX)
 1868 0BB0  B7          	OR A
 1869 0BB1  C2 0BBA     	JP NZ,PRNP1
 1870                   	
 1871                   	; Mini
 1872 0BB4  21 0D76     	LD HL,TMINI
 1873 0BB7  C3 0BBD     	JP PRNP2
 1874                   	
 1875 0BBA              PRNP1:	; Maxi
 1876 0BBA  21 0D86     	LD HL,TMAXI
 1877                   
 1878 0BBD  CD 0B99     PRNP2:	CALL PRNMSG
 1879                   
 1880                   	; --- user / flotype ---
 1881                   
 1882 0BC0  3A 18B8     	LD A,(USER)
 1883 0BC3  B7          	OR A		; USER=0 ?
 1884 0BC4  C2 0BDA     	JP NZ,PRNP5
 1885                   	
 1886                   	; USER=0: FLO1/FLO2 (C0h)
 1887 0BC7  3A 18B9     	LD A,(FLOTYP)
 1888 0BCA  B7          	OR A
 1889 0BCB  C2 0BD4     	JP NZ,PRNP3
 1890                   	
 1891                   	; USER=0, FLOTYP=0: FLO2 (C0h)
 1892 0BCE  21 0D96     	LD HL,TFLO2
 1893 0BD1  C3 0BD7     	JP PRNP4
 1894                   	
 1895 0BD4              PRNP3:	; USER=0, FLOYP=1: FLO1 (C0h)
 1896 0BD4  21 0DBD     	LD HL,TFLO1C
 1897                   
 1898 0BD7  C3 0BE8     PRNP4:	JP PRNP7
 1899                   	
 1900 0BDA  FE 01       PRNP5:	CP 1		; USER=1 ?
 1901 0BDC  C2 0BE5     	JP NZ,PRNP6
 1902                   	
 1903                   	; USER=1: FLO1 (40h)
 1904 0BDF  21 0DA3     	LD HL,TFLO1A
 1905 0BE2  C3 0BE8     	JP PRNP7
 1906                   
 1907 0BE5              PRNP6:	; USER=other: FLO1 (30h)
 1908 0BE5  21 0DB0     	LD HL,TFLO1B
 1909                   
 1910 0BE8  CD 0B99     PRNP7:	CALL PRNMSG	; print USER/FLOTYP
 1911                   
 1912                   	; --- density (FM/MFM/ECMA77)---
 1913                   
 1914 0BEB  3A 18BF     	LD A,(DENSITY)
Z80ASM SuperFast Relocating Macro Assembler     	    Z80ASM 1.32 Page  34
NFORM   Z80

 1915 0BEE  B7          	OR A
 1916 0BEF  C2 0BF8     	JP NZ,PRNP8
 1917                   
 1918                   	; DENSITY=0: FM
 1919 0BF2  21 0DCA     	LD HL,TFM
 1920 0BF5  C3 0BFB     	JP PRNP9
 1921                   
 1922 0BF8              PRNP8:	; DENSITY=1: MFM
 1923 0BF8  21 0DCF     	LD HL,TMFM
 1924                   
 1925 0BFB  3A 18BB     PRNP9:	LD A,(ECMA)
 1926 0BFE  FE 01       	CP 1
 1927 0C00  C2 0C06     	JP NZ,PRNP10
 1928                   	
 1929                   	; ECMA
 1930 0C03  21 0DD5     	LD HL,TECMA 	; special case: ECMA77 format
 1931                   
 1932 0C06  CD 0B99     PRNP10:	CALL PRNMSG
 1933                   
 1934 0C09  CD 0D50     	CALL CRLF
 1935 0C0C  CD 0D50     	CALL CRLF
 1936                   	
 1937                   	; --- number of track ---
 1938                   	
 1939 0C0F  21 0DDD     	LD HL,TSPUREN
 1940 0C12  CD 0B99     	CALL PRNMSG
 1941 0C15  3A 18C1     	LD A,(TRKCNT)
 1942 0C18  6F          	LD L,A
 1943 0C19  26 00       	LD H,0
 1944 0C1B  CD 02AE     	CALL PRNTHL 	; Anzahl Spuren
 1945 0C1E  CD 0D50     	CALL CRLF
 1946                   	
 1947                   	; --- number of sectors ---
 1948                   	
 1949 0C21  21 0DF1     	LD HL,TSEKTOREN
 1950 0C24  CD 0B99     	CALL PRNMSG
 1951 0C27  3A 18C3     	LD A,(SECCNT)
 1952 0C2A  6F          	LD L,A
 1953 0C2B  26 00       	LD H,0
 1954 0C2D  CD 02AE     	CALL PRNTHL 	; Anzahl SECCNT
 1955 0C30  CD 0D50     	CALL CRLF
 1956                   
 1957                   	; --- bytes per sector ---
 1958                   	
 1959 0C33  21 0E05     	LD HL,TBYTES
 1960 0C36  CD 0B99     	CALL PRNMSG
 1961 0C39  2A 18BC     	LD HL,(BYTCNT)
 1962 0C3C  CD 02AE     	CALL PRNTHL 	; Bytes pro Sektor
 1963 0C3F  CD 0D50     	CALL CRLF
 1964                   
 1965                   	; --- drive (A,B, ...) ---
 1966                   
 1967 0C42  21 0E19     	LD HL,TLAUFWERK
 1968 0C45  CD 0B99     	CALL PRNMSG
 1969 0C48  3A 18C4     	LD A,(DRIVE)
 1970 0C4B  E6 0F       	AND 0FH 	; 1,2,4,8
 1971 0C4D  FE 01       	CP 1
 1972 0C4F  C2 0C57     	JP NZ,PRNP11
Z80ASM SuperFast Relocating Macro Assembler     	    Z80ASM 1.32 Page  35
NFORM   Z80

 1973                   	
 1974 0C52  0E 41       	LD C,'A'
 1975 0C54  C3 0C77     	JP PRNP15
 1976                   
 1977 0C57  FE 02       PRNP11:	CP 2
 1978 0C59  C2 0C61     	JP NZ,PRNP12
 1979                   	
 1980 0C5C  0E 42       	LD C,'B'
 1981 0C5E  C3 0C77     	JP PRNP15
 1982                   
 1983 0C61  FE 04       PRNP12:	CP 4
 1984 0C63  C2 0C6B     	JP NZ,PRNP13
 1985                   	
 1986 0C66  0E 43       	LD C,'C'
 1987 0C68  C3 0C77     	JP PRNP15
 1988                   	
 1989 0C6B  FE 08       PRNP13:	CP 8
 1990 0C6D  C2 0C75     	JP NZ,PRNP14
 1991                   	
 1992 0C70  0E 44       	LD C,'D'
 1993 0C72  C3 0C77     	JP PRNP15
 1994                   
 1995 0C75  0E 3F       PRNP14:	LD C,'?'
 1996                   
 1997 0C77  CD 0103     PRNP15:	CALL CONOUT
 1998 0C7A  CD 0D50     	CALL CRLF
 1999 0C7D  CD 0D50     	CALL CRLF
 2000                   
 2001                   	; --- single-sided / double-sided ---
 2002                   
 2003 0C80  3A 18C2     	LD A,(SSDS)
 2004 0C83  FE 01       	CP 1
 2005 0C85  C2 0C9E     	JP NZ,PRNP18	; -> single-sided
 2006                   	
 2007                   	; double-sided
 2008                   	
 2009 0C88  3A 18C6     	LD A,(USESSO)
 2010 0C8B  B7          	OR A
 2011 0C8C  C2 0C95     	JP NZ,PRNP16	; -> SSO
 2012                   	
 2013                   	; double-sided, no SSO
 2014 0C8F  21 0E7D     	LD HL,TZWEISEITIG
 2015 0C92  C3 0C98     	JP PRNP17
 2016                   
 2017 0C95              PRNP16:	; double-sided with SSO
 2018 0C95  21 0E9C     	LD HL,TZWEISSO
 2019                   
 2020 0C98  CD 0B99     PRNP17:	CALL PRNMSG
 2021 0C9B  C3 0CC2     	JP PRNP22
 2022                   
 2023                   	; single-sided
 2024                   
 2025 0C9E  3A 18C4     PRNP18:	LD A,(DRIVE) 
 2026 0CA1  E6 80       	AND 80H
 2027 0CA3  C2 0CAF     	JP NZ,PRNP19
 2028                   	
 2029                   	; side 0
 2030 0CA6  21 0E23     	LD HL,TEINSEITIG
Z80ASM SuperFast Relocating Macro Assembler     	    Z80ASM 1.32 Page  36
NFORM   Z80

 2031 0CA9  CD 0B99     	CALL PRNMSG
 2032 0CAC  C3 0CC2     	JP PRNP22
 2033                   	
 2034 0CAF              PRNP19:	; side 1
 2035 0CAF  3A 18C6     	LD A,(USESSO)
 2036 0CB2  B7          	OR A
 2037 0CB3  C2 0CBC     	JP NZ,PRNP20	; -> SSO
 2038                   	
 2039                   	; single-sided, no SSO
 2040 0CB6  21 0E3F     	LD HL,TRUECKSEITE
 2041 0CB9  C3 0CBF     	JP PRNP21
 2042                   
 2043 0CBC              PRNP20:	; side 1, with SSO
 2044 0CBC  21 0E5A     	LD HL,TRUECKSSO
 2045                   
 2046 0CBF  CD 0B99     PRNP21:	CALL PRNMSG
 2047                   
 2048 0CC2  CD 0D50     PRNP22:	CALL CRLF 
 2049 0CC5  CD 0D50     	CALL CRLF
 2050                   	
 2051                   	; --- capacity in kb ---
 2052                   	
 2053 0CC8  21 0D57     	LD HL,TKAP
 2054 0CCB  CD 0B99     	CALL PRNMSG
 2055 0CCE  3A 18C3     	LD A,(SECCNT)
 2056 0CD1  6F          	LD L,A
 2057 0CD2  26 00       	LD H,0
 2058 0CD4  3A 18C1     	LD A,(TRKCNT)
 2059 0CD7  5F          	LD E,A
 2060 0CD8  16 00       	LD D,0
 2061 0CDA  CD 0D33     	CALL MULHLDE 	; HL = sectors * tracks
 2062                   	
 2063 0CDD  3A 18C2     	LD A,(SSDS)
 2064 0CE0  FE 01       	CP 1
 2065 0CE2  C2 0CEB     	JP NZ,PRNP23	; -> single-sided
 2066                   	
 2067                   	; double-sided
 2068 0CE5  11 0002     	LD DE,2
 2069 0CE8  CD 0D33     	CALL MULHLDE 	; HL = HL * 2
 2070                   
 2071 0CEB  ED 5B 18BC  PRNP23:	LD DE,(BYTCNT) 	; 1024,512,256,128
 2072                   			; (400h,200h,100h,080h)
 2073 0CEF  7A          	LD A,D
 2074 0CF0  B7          	OR A
 2075 0CF1  C2 0D01     	JP NZ,PRNP25
 2076                   	
 2077                   	; D=0: HL = HL / 8 (1 KB / 8 = 128)
 2078 0CF4  06 03       	LD B,3 
 2079 0CF6  CB 2C       PRNP24:	SRA H
 2080 0CF8  CB 1D       	RR L
 2081 0CFA  05          	DEC B
 2082 0CFB  C2 0CF6     	JP NZ,PRNP24
 2083                   	
 2084 0CFE  C3 0D26     	JP PRNP29
 2085                   
 2086 0D01              PRNP25:	; D=1
 2087 0D01  7A          	LD A,D
 2088 0D02  FE 01       	CP 1
Z80ASM SuperFast Relocating Macro Assembler     	    Z80ASM 1.32 Page  37
NFORM   Z80

 2089 0D04  C2 0D12     	JP NZ,PRNP26
 2090                   	
 2091                   	; D=1: HL = HL / 4 (1 KB / 4 = 256)
 2092 0D07  CB 2C       	SRA H
 2093 0D09  CB 1D       	RR L
 2094 0D0B  CB 2C       	SRA H
 2095 0D0D  CB 1D       	RR L
 2096 0D0F  C3 0D26     	JP PRNP29
 2097                   
 2098 0D12  7A          PRNP26:	LD A,D
 2099 0D13  FE 02       	CP 2
 2100 0D15  C2 0D1F     	JP NZ,PRNP27
 2101                   
 2102                   	; D=2: HL = HL / 2 (1 KB / 2 = 512)
 2103 0D18  CB 2C       	SRA H
 2104 0D1A  CB 1D       	RR L
 2105 0D1C  C3 0D26     	JP PRNP29
 2106                   
 2107 0D1F              PRNP27:	; D=4: HL = HL / 1 (1 KB / 1 = 1024)
 2108                   
 2109 0D1F  7A          PRNP28:	LD A,D
 2110 0D20  FE 04       	CP 4
 2111 0D22  C2 0D26     	JP NZ,PRNP29
 2112                   	
 2113 0D25  00          	NOP		; ???
 2114                   
 2115 0D26  CD 02AE     PRNP29:	CALL PRNTHL	; print HL decimal
 2116 0D29  21 0D6E     	LD HL,TKAP1
 2117 0D2C  CD 0B99     	CALL PRNMSG
 2118 0D2F  CD 0D50     	CALL CRLF
 2119 0D32  C9          	RET
 2120                   	
 2121                   ;-----------------------------------------------------------------------------
 2122                   ; HL = HL * DE
 2123                   ; for capacity calculation
 2124                   
 2125 0D33              MULHLDE:
 2126 0D33  3E 10       	LD A,16
 2127 0D35  D5          	PUSH DE
 2128 0D36  C1          	POP BC
 2129 0D37  11 0000     	LD DE,0
 2130 0D3A  EB          	EX DE,HL
 2131                   
 2132 0D3B  F5          MULHL1:	PUSH AF
 2133 0D3C  CB 43       	BIT 0,E
 2134 0D3E  CA 0D42     	JP Z,MULHL2
 2135                   	
 2136 0D41  09          	ADD HL,BC
 2137                   
 2138 0D42  CB 2C       MULHL2:	SRA H
 2139 0D44  CB 1D       	RR L
 2140 0D46  CB 1A       	RR D
 2141 0D48  CB 1B       	RR E
 2142 0D4A  F1          	POP AF
 2143 0D4B  3D          	DEC A
 2144 0D4C  20 ED       	JR NZ,MULHL1
 2145                   	
 2146 0D4E  EB          	EX DE,HL 	; LSB to HL
Z80ASM SuperFast Relocating Macro Assembler     	    Z80ASM 1.32 Page  38
NFORM   Z80

 2147 0D4F  C9          	RET
 2148                   	
 2149                   ;-----------------------------------------------------------------------------
 2150                   ; Print CR/LF
 2151                   
 2152 0D50  21 1738     CRLF:	LD HL,TCRLF
 2153 0D53  CD 0B99     	CALL PRNMSG
 2154 0D56  C9          	RET
 2155                   
 2156                   ;-----------------------------------------------------------------------------
 2157                   
 2158 0D57  53 70 65 69 TKAP:	DEFB 'Speicherkapazitaet :  ',0
 2159                   
 2160 0D6E  20 4B 42 79 TKAP1:	DEFB ' KBytes',0
 2161                   
 2162 0D76  4D 69 6E 69 TMINI:	DEFB 'Mini-Laufwerk  ',0
 2163                   
 2164 0D86  4D 61 78 69 TMAXI:	DEFB 'Maxi-Laufwerk  ',0
 2165                   
 2166 0D96  46 4C 4F 32 TFLO2:	DEFB 'FLO2 (C0h)  ',0
 2167                   
 2168 0DA3  46 4C 4F 31 TFLO1A:	DEFB 'FLO1 (40h)  ',0
 2169                   
 2170 0DB0  46 4C 4F 31 TFLO1B:	DEFB 'FLO1 (30h)  ',0
 2171                   
 2172 0DBD  46 4C 4F 31 TFLO1C:	DEFB 'FLO1 (C0h)  ',0
 2173                   
 2174 0DCA  46 4D 20 20 TFM:	DEFB 'FM  ',0
 2175                   
 2176 0DCF  4D 46 4D 20 TMFM:	DEFB 'MFM  ',0
 2177                   
 2178 0DD5  45 43 4D 41 TECMA:	DEFB 'ECMA70 ',0
 2179                   
 2180 0DDD              TSPUREN:
 2181 0DDD  41 6E 7A 61 	DEFB 'Anzahl Spuren    = ',0
 2182                   
 2183 0DF1              TSEKTOREN:
 2184 0DF1  41 6E 7A 61 	DEFB 'Anzahl Sektoren  = ',0
 2185                   
 2186 0E05  42 79 74 65 TBYTES:	DEFB 'Bytes/pro Sektor = ',0
 2187                   
 2188 0E19              TLAUFWERK:
 2189 0E19  4C 61 75 66 	DEFB 'Laufwerk ',0
 2190                   
 2191 0E23              TEINSEITIG:
 2192 0E23  56 6F 72 64 	DEFB 'Vorderseite wird formatiert',0
 2193                   
 2194 0E3F              TRUECKSEITE:
 2195 0E3F  52 75 65 63 	DEFB 'Rueckseite wird formatiert',0
 2196                   
 2197 0E5A              TRUECKSSO:
 2198 0E5A  52 75 65 63 	DEFB 'Rueckseite wird mit SSO formatiert',0
 2199                   
 2200 0E7D              TZWEISEITIG:
 2201 0E7D  62 65 69 64 	DEFB 'beide Seiten werden formatiert',0
 2202                   
 2203 0E9C              TZWEISSO:
 2204 0E9C  62 65 69 64 	DEFB 'beide Seiten werden formatiert',0dh,0ah
Z80ASM SuperFast Relocating Macro Assembler     	    Z80ASM 1.32 Page  39
NFORM   Z80

 2205 0EBC  53 65 69 74 	DEFB 'Seite 1 mit SSO, Seite 0 normal',0
 2206                   
 2207 0EDC              FORMTXT:
 2208 0EDC  0D 0A       	DEFB 0dh,0ah
 2209 0EDE  41 43 48 54 	DEFB 'ACHTUNG Diskette wird formatiert',0dh,0ah
 2210 0F00  53 74 61 72 	DEFB 'Start = "J"',0dh,0ah
 2211 0F0D  00          	DEFB 0
 2212                   
 2213 0F0E              HEADTXT:
 2214 0F0E  1A 0D 0A    	DEFB 1ah,0dh,0ah
 2215 0F11  20 55 6E 69 	DEFB ' Universal Formatierer  V 1.22 , Rolf-Dieter Klein / JS ',0dh,0ah
 2216 0F4B  20 28 43 29 	DEFB ' (C) 1984, Muenchen ',0dh,0ah
 2217 0F61  0D 0A       	DEFB 0dh,0ah
 2218 0F63  20 2D 2D 20 	DEFB ' --   Bitte Systemdiskette herausnehmen    -- ',0dh,0ah
 2219 0F93  20 2D 2D 20 	DEFB ' -- und zu formatierende Diskette einlegen -- ',0dh,0ah
 2220 0FC3  0D 0A       	DEFB 0dh,0ah
 2221 0FC5  4D 69 6E 69 	DEFB 'Minilaufwerke (5 1/4") = 1',0dh,0ah
 2222 0FE1  4D 61 78 69 	DEFB 'Maxilaufwerke (8"    ) = 2',0dh,0ah
 2223 0FFD  53 74 64 20 	DEFB 'Std  8" SD SD 77 Spur  = 3',0dh,0ah
 2224 1019  45 43 4D 41 	DEFB 'ECMA 70 DD SD 40 Spur  = 4',0dh,0ah
 2225 1035  4E 44 52 2D 	DEFB 'NDR- DD DS 80 Spur     = 5',0dh,0ah
 2226 1051  45 4E 44 45 	DEFB 'ENDE                   = 6',0dh,0ah
 2227 106D  0D 0A 00    	DEFB 0dh,0ah,0
 2228                   
 2229 1070  1A 0D 0A    MENUE2:	DEFB 1ah,0dh,0ah
 2230 1073  65 69 6E 66 	DEFB 'einfache Schreibdichte = 1',0dh,0ah
 2231 108F  64 6F 70 70 	DEFB 'doppelte Schreibdichte = 2',0dh,0ah
 2232 10AB  0D 0A 00    	DEFB 0dh,0ah,0
 2233                   
 2234 10AE  1A 0D 0A    MENUE3:	DEFB 1ah,0dh,0ah
 2235 10B1  33 35 20 53 	DEFB '35 Spuren  = 1',0dh,0ah
 2236 10C1  34 30 20 53 	DEFB '40 Spuren  = 2',0dh,0ah
 2237 10D1  37 30 20 53 	DEFB '70 Spuren  = 3',0dh,0ah
 2238 10E1  37 37 20 53 	DEFB '77 Spuren  = 4',0dh,0ah
 2239 10F1  38 30 20 53 	DEFB '80 Spuren  = 5',0dh,0ah
 2240 1101  0D 0A 00    	DEFB 0dh,0ah,0
 2241                   
 2242 1104  1A 0D 0A    MENUE4:	DEFB 1ah,0dh,0ah
 2243 1107  45 69 6E 73 	DEFB 'Einseitiges Laufwerk     = 1',0dh,0ah
 2244 1125  44 6F 70 70 	DEFB 'Doppeltseitiges Laufwerk = 2',0dh,0ah
 2245 1143  44 6F 70 70 	DEFB 'Doppeltseitig und SSO    = 3',0dh,0ah
 2246 1161  0D 0A 00    	DEFB 0dh,0ah,0
 2247                   
 2248 1164              MENUE5A:
 2249                   ; einfache Dichte, Minifloppy
 2250 1164  1A 0D 0A    	DEFB 1ah,0dh,0ah
 2251 1167  31 32 38 20 	DEFB '128 Bytes pro Sektor  (16 pro Track) = 1',0dh,0ah
 2252 1191  31 32 38 20 	DEFB '128 Bytes pro Sektor  (18 pro Track) = 2',0dh,0ah
 2253 11BB  32 35 36 20 	DEFB '256 Bytes pro Sektor  (10 pro Track) = 3',0dh,0ah
 2254 11E5  0D 0A 00    	DEFB 0dh,0ah,0
 2255                   
 2256 11E8              MENUE5B:
 2257                   	; doppelte Dichte, Minifloppy
 2258 11E8  1A 0D 0A    	DEFB 1ah,0dh,0ah
 2259 11EB  32 35 36 20 	DEFB '256 Bytes pro Sektor  (16 pro Track) = 1',0dh,0ah
 2260 1215  35 31 32 20 	DEFB '512 Bytes pro Sektor  (9 pro Track)  = 2',0dh,0ah
 2261 123F  35 31 32 20 	DEFB '512 Bytes pro Sektor  (10 pro Track) = 3',0dh,0ah
 2262 1269  31 30 32 34 	DEFB '1024 Bytes pro Sektor (5 pro Track)  = 4',0dh,0ah
Z80ASM SuperFast Relocating Macro Assembler     	    Z80ASM 1.32 Page  40
NFORM   Z80

 2263 1293  0D 0A 00    	DEFB 0dh,0ah,0
 2264                   
 2265 1296              MENUE5C:
 2266                   	; einfache Dichte Maxifloppy
 2267 1296  1A 0D 0A    	DEFB 1ah,0dh,0ah
 2268 1299  31 32 38 20 	DEFB '128 Bytes pro Sektor (26 pro Track) = 1',0dh,0ah
 2269 12C2  32 35 36 20 	DEFB '256 Bytes pro Sektor (15 pro Track) = 2',0dh,0ah
 2270 12EB  0D 0A 00    	DEFB 0dh,0ah,0
 2271                   
 2272 12EE              MENUE5D:
 2273                   	; doppelte Dichte Maxifloppy
 2274 12EE  1A 0D 0A    	DEFB 1ah,0dh,0ah
 2275 12F1  32 35 36 20 	DEFB '256 Bytes pro Sektor (26 pro Track) = 1',0dh,0ah
 2276 131A  35 31 32 20 	DEFB '512 Bytes pro Sektor (14 pro Track) = 2',0dh,0ah
 2277 1343  35 31 32 20 	DEFB '512 Bytes pro Sektor (15 pro Track) = 3',0dh,0ah
 2278 136C  35 31 32 20 	DEFB '512 Bytes pro Sektor (16 pro Track) = 4',0dh,0ah
 2279 1395  31 30 32 34 	DEFB '1024 Bytes pro Sektor (8 pro Track) = 5',0dh,0ah
 2280 13BE  31 30 32 34 	DEFB '1024 Bytes pro Sektor (9 pro Track) = 6',0dh,0ah
 2281 13E7  0D 0A 00    	DEFB 0dh,0ah,0
 2282                   
 2283 13EA  1A 0D 0A    MENUE6:	DEFB 1ah,0dh,0ah
 2284 13ED  4C 61 75 66 	DEFB 'Laufwerk              A = 1',0dh,0ah
 2285 140A  4C 61 75 66 	DEFB 'Laufwerk              B = 2',0dh,0ah
 2286 1427  4C 61 75 66 	DEFB 'Laufwerk              C = 3',0dh,0ah
 2287 1444  4C 61 75 66 	DEFB 'Laufwerk              D = 4',0dh,0ah
 2288 1461  4C 61 75 66 	DEFB 'Laufwerk A Rueckseite A = 5',0dh,0ah
 2289 147E  4C 61 75 66 	DEFB 'Laufwerk B Rueckseite B = 6',0dh,0ah
 2290 149B  4C 61 75 66 	DEFB 'Laufwerk C Rueckseite C = 7',0dh,0ah
 2291 14B8  4C 61 75 66 	DEFB 'Laufwerk D Rueckseite D = 8',0dh,0ah
 2292 14D5  4E 45 55 53 	DEFB 'NEUSTART    = 9',0dh,0ah
 2293 14E6  45 4E 44 45 	DEFB 'ENDE        = 0',0dh,0ah
 2294 14F7  0D 0A 00    	DEFB 0dh,0ah,0
 2295                   
 2296 14FA  1A 0D 0A    MENUE7:	DEFB 1ah,0dh,0ah
 2297 14FD  46 4C 4F 32 	DEFB 'FLO2-Maxi/Mini (0C0h) = 1',0dh,0ah
 2298 1518  46 4C 4F 31 	DEFB 'FLO1-Maxi (40h)       = 2',0dh,0ah
 2299 1533  46 4C 4F 31 	DEFB 'FLO1-Mini (30h)       = 3',0dh,0ah
 2300 154E  46 4C 4F 31 	DEFB 'FLO1-Maxi/Mini (0C0h) = 4',0dh,0ah
 2301 1569  0D 0A 00    	DEFB 0dh,0ah,0
 2302                   
 2303 156C  1A 0D 0A    FMSG:	DEFB 1ah,0dh,0ah
 2304 156F  44 69 73 6B 	DEFB 'Diskette wird formatiert ... bitte warten ',0dh,0ah
 2305 159B  0D 0A 00    	DEFB 0dh,0ah,0
 2306                   
 2307 159E  0D 0A       F6MSG:	DEFB 0dh,0ah
 2308 15A0  53 63 68 72 	DEFB 'Schreibschutz gesetzt',0dh,0ah
 2309 15B7  4E 65 75 73 	DEFB 'Neustart = Taste W druecken',0dh,0ah,0
 2310                   
 2311 15D5  0D 0A       F5MSG:	DEFB 0dh,0ah
 2312 15D7  52 65 63 6F 	DEFB 'Record Typ ist falsch',0dh,0ah
 2313 15EE  4E 65 75 73 	DEFB 'Neustart = Taste W druecken',0dh,0ah,0
 2314                   
 2315 160C  0D 0A       F4MSG:	DEFB 0dh,0ah
 2316 160E  52 65 63 6F 	DEFB 'Record nicht gefunden',0dh,0ah
 2317 1625  4E 65 75 73 	DEFB 'Neustart = Taste W druecken',0dh,0ah,0
 2318                   
 2319 1643  0D 0A       F3MSG:	DEFB 0dh,0ah
 2320 1645  43 52 43 20 	DEFB 'CRC Fehler aufgetreten',0dh,0ah
Z80ASM SuperFast Relocating Macro Assembler     	    Z80ASM 1.32 Page  41
NFORM   Z80

 2321 165D  4E 65 75 73 	DEFB 'Neustart = Taste W druecken',0dh,0ah,0
 2322                   
 2323 167B  0D 0A       F2MSG:	DEFB 0dh,0ah
 2324 167D  43 50 55 20 	DEFB 'CPU zu langsam fuer gewaehltes Format-- Datenverlust',0dh,0ah
 2325 16B3  68 6F 65 68 	DEFB 'hoeherer Takt erforderlich',0dh,0ah
 2326 16CF  4E 65 75 73 	DEFB 'Neustart = Taste W druecken',0dh,0ah,0
 2327                   
 2328 16ED  0D 0A       F0MSG:	DEFB 0dh,0ah
 2329 16EF  46 65 68 6C 	DEFB 'Fehler aufgetreten. Neustart = Taste W druecken',0dh,0ah,0
 2330                   
 2331 1721  0D 0A       TKMSG:	DEFB 0dh,0ah
 2332 1723  54 72 61 63 	DEFB 'Track = ',0
 2333                   
 2334 172C  2C 20 53 65 SKMSG:	DEFB ', Sektor = ',0
 2335                   
 2336 1738  0D 0A 00    TCRLF:	DEFB 0dh,0ah,0
 2337                   
 2338 173B  0D 0A       RMSG:	DEFB 0dh,0ah
 2339 173D  4C 61 75 66 	DEFB 'Laufwerk nicht READY ... bitte pruefen:',0dh,0ah
 2340 1766  20 31 2E 20 	DEFB ' 1. Diskette falschherum eingelegt',0dh,0ah
 2341 178A  20 32 2E 20 	DEFB ' 2. Laufwerkstuere nicht geschlossen',0dh,0ah
 2342 17B0  20 33 2E 20 	DEFB ' 3. falsche Laufwerksnummer angegeben',0dh,0ah
 2343 17D7  20 34 2E 20 	DEFB ' 4. Laufwerksmotor dreht sich nicht',0dh,0ah
 2344 17FC  20 35 2E 20 	DEFB ' 5. READY-Leitung nicht ok',0dh,0ah 
 2345 1818  0D 0A       	DEFB 0dh,0ah
 2346 181A  4E 65 75 73 	DEFB 'Neustart = Taste W druecken',0dh,0ah,0
 2347                   
 2348 1838  0D 0A       VMSG:	DEFB 0dh,0ah
 2349 183A  44 69 73 6B 	DEFB 'Diskette wird geprueft ... bitte warten',0dh,0ah
 2350 1863  0D 0A 00    	DEFB 0dh,0ah,0
 2351                   
 2352 1866  1A 0D 0A    FIMSG:	DEFB 1ah,0dh,0ah
 2353 1869  53 79 73 74 	DEFB 'Systemdiskette in Laufwerk A einlegen,',0dh,0ah
 2354 1891  64 61 6E 6E 	DEFB 'dann CR (carriage return) druecken.',0dh,0ah,0
 2355                   
 2356 18B7  00          	DEFB 0		; v1.22
 2357                   	
 2358 18B8  00          USER:	DEFB 0  	; 0=FLO1/FLO2 (C0h), 1=FLO1 Maxi, 2=FLO1 Mini
 2359 18B9  00          FLOTYP:	DEFB 0    	; 0=FLO2 (C0h), 1=FLO1 (C0h) (only if USER=0)
 2360 18BA  00          MINMAX:	DEFB 0  	; 0=Mini, 1=Maxi
 2361 18BB  00          ECMA:	DEFB 0  	; 1=ECMA70 format (SD,128 on track 0)
 2362 18BC  0000        BYTCNT:	DEFW 0  	; Anzahl der Bytes pro Sektor
 2363 18BE  E5          FILLER:	DEFB 0E5h 	; fill byte std=E5h
 2364 18BF  00          DENSITY:DEFB 0  	; 0=single-density, 1=double-density
 2365 18C0  00          GAPLEN:	DEFB 0  	; Gap 3 Laenge zwischen Sektoren
 2366 18C1  00          TRKCNT:	DEFB 0  	; Anzahl der Spuren
 2367 18C2  00          SSDS:	DEFB 0  	; 0=single-sided, 1=double-sided
 2368 18C3  00          SECCNT:	DEFB 0  	; Anzahl der Sektoren pro Spur
 2369 18C4  00          DRIVE:	DEFB 0  	; drive code (1,2,4,8), Bit7=1: Side 1
 2370 18C5  00          SIDESEL:DEFB 0  	; SSO: 0=Seite 0, 80h=Seite 1 (wird nur bei USESSO=1 gesetzt fuer FD1797)
 2371 18C6  00          USESSO:	DEFB 0  	; 0=no SSO, 1=use SSO (nur fuer FD1797)
 2372                   		
 2373 18C7  00          CURTRK:	DEFB 0  	; aktuelle Spur
 2374 18C8  00          CURSEC:	DEFB 0  	; aktueller Sektor
 2375                   
 2376 18C9              FORMTAB:	; Formatierbereich, hier wird ein Track gelegt.
 2377                   
 2378                   	END
Z80ASM SuperFast Relocating Macro Assembler     	    Z80ASM 1.32 Page  42


 0 Error(s) Detected.
 6089 Absolute Bytes. 307 Symbols Detected.
 2365